
main:     file format elf64-littleriscv


Disassembly of section .text:

0000000050201000 <_start>:
    50201000:	10401073          	csrw	sie,zero
    50201004:	14401073          	csrw	sip,zero
    50201008:	6299                	lui	t0,0x6
    5020100a:	1002b073          	csrc	sstatus,t0
    5020100e:	00004197          	auipc	gp,0x4
    50201012:	45218193          	addi	gp,gp,1106 # 50205460 <__global_pointer$>
    50201016:	82c18693          	addi	a3,gp,-2004 # 50204c8c <_edata>
    5020101a:	00007717          	auipc	a4,0x7
    5020101e:	92e70713          	addi	a4,a4,-1746 # 50207948 <__BSS_END__>
    50201022:	00e6d763          	bge	a3,a4,50201030 <clear_bss_done>

0000000050201026 <clear_bss>:
    50201026:	0006b023          	sd	zero,0(a3)
    5020102a:	06a1                	addi	a3,a3,8
    5020102c:	fee6cde3          	blt	a3,a4,50201026 <clear_bss>

0000000050201030 <clear_bss_done>:
    50201030:	00003217          	auipc	tp,0x3
    50201034:	6f820213          	addi	tp,tp,1784 # 50204728 <pid0_pcb>
    50201038:	00004117          	auipc	sp,0x4
    5020103c:	c2812103          	lw	sp,-984(sp) # 50204c60 <pid0_stack>
    50201040:	14001073          	csrw	sscratch,zero
    50201044:	00006517          	auipc	a0,0x6
    50201048:	c2c50513          	addi	a0,a0,-980 # 50206c70 <riscv_dtb>
    5020104c:	e10c                	sd	a1,0(a0)
    5020104e:	4c4000ef          	jal	ra,50201512 <main>

0000000050201052 <loop>:
    50201052:	10500073          	wfi
    50201056:	bff5                	j	50201052 <loop>
    50201058:	0000                	unimp
	...

000000005020105c <setup_exception>:
    5020105c:	8082                	ret
	...

0000000050201060 <enable_preempt>:
    50201060:	00006317          	auipc	t1,0x6
    50201064:	2c033303          	ld	t1,704(t1) # 50207320 <current_running>
    50201068:	01033283          	ld	t0,16(t1)
    5020106c:	00028863          	beqz	t0,5020107c <do_enable>
    50201070:	12fd                	addi	t0,t0,-1
    50201072:	00533823          	sd	t0,16(t1)
    50201076:	00028363          	beqz	t0,5020107c <do_enable>
    5020107a:	8082                	ret

000000005020107c <do_enable>:
    5020107c:	fff04293          	not	t0,zero
    50201080:	1042a073          	csrs	sie,t0
    50201084:	8082                	ret
    50201086:	0001                	nop

0000000050201088 <disable_preempt>:
    50201088:	10401073          	csrw	sie,zero
    5020108c:	00006317          	auipc	t1,0x6
    50201090:	29433303          	ld	t1,660(t1) # 50207320 <current_running>
    50201094:	01033283          	ld	t0,16(t1)
    50201098:	0285                	addi	t0,t0,1
    5020109a:	00533823          	sd	t0,16(t1)
    5020109e:	8082                	ret

00000000502010a0 <enable_interrupt>:
    502010a0:	4289                	li	t0,2
    502010a2:	1002a073          	csrs	sstatus,t0
    502010a6:	8082                	ret

00000000502010a8 <disable_interrupt>:
    502010a8:	4289                	li	t0,2
    502010aa:	1002b073          	csrc	sstatus,t0
    502010ae:	8082                	ret

00000000502010b0 <switch_to>:
    502010b0:	822a                	mv	tp,a0
    502010b2:	712d                	addi	sp,sp,-288
    502010b4:	e406                	sd	ra,8(sp)
    502010b6:	e0a2                	sd	s0,64(sp)
    502010b8:	e4a6                	sd	s1,72(sp)
    502010ba:	e94a                	sd	s2,144(sp)
    502010bc:	ed4e                	sd	s3,152(sp)
    502010be:	f152                	sd	s4,160(sp)
    502010c0:	f556                	sd	s5,168(sp)
    502010c2:	f95a                	sd	s6,176(sp)
    502010c4:	fd5e                	sd	s7,184(sp)
    502010c6:	e1e2                	sd	s8,192(sp)
    502010c8:	e5e6                	sd	s9,200(sp)
    502010ca:	e9ea                	sd	s10,208(sp)
    502010cc:	edee                	sd	s11,216(sp)
    502010ce:	00223023          	sd	sp,0(tp) # 0 <_start-0x50201000>
    502010d2:	822e                	mv	tp,a1
    502010d4:	00023103          	ld	sp,0(tp) # 0 <_start-0x50201000>
    502010d8:	60a2                	ld	ra,8(sp)
    502010da:	6406                	ld	s0,64(sp)
    502010dc:	64a6                	ld	s1,72(sp)
    502010de:	694a                	ld	s2,144(sp)
    502010e0:	69ea                	ld	s3,152(sp)
    502010e2:	7a0a                	ld	s4,160(sp)
    502010e4:	7aaa                	ld	s5,168(sp)
    502010e6:	7b4a                	ld	s6,176(sp)
    502010e8:	7bea                	ld	s7,184(sp)
    502010ea:	6c0e                	ld	s8,192(sp)
    502010ec:	6cae                	ld	s9,200(sp)
    502010ee:	6d4e                	ld	s10,208(sp)
    502010f0:	6dee                	ld	s11,216(sp)
    502010f2:	6115                	addi	sp,sp,288
    502010f4:	00223023          	sd	sp,0(tp) # 0 <_start-0x50201000>
    502010f8:	8082                	ret
	...

00000000502010fc <sbi_console_putstr>:
    502010fc:	1101                	addi	sp,sp,-32
    502010fe:	ec22                	sd	s0,24(sp)
    50201100:	1000                	addi	s0,sp,32
    50201102:	fea43423          	sd	a0,-24(s0)
    50201106:	fe843783          	ld	a5,-24(s0)
    5020110a:	853e                	mv	a0,a5
    5020110c:	4581                	li	a1,0
    5020110e:	4601                	li	a2,0
    50201110:	48a5                	li	a7,9
    50201112:	00000073          	ecall
    50201116:	0001                	nop
    50201118:	6462                	ld	s0,24(sp)
    5020111a:	6105                	addi	sp,sp,32
    5020111c:	8082                	ret

000000005020111e <sbi_console_putchar>:
    5020111e:	1101                	addi	sp,sp,-32
    50201120:	ec22                	sd	s0,24(sp)
    50201122:	1000                	addi	s0,sp,32
    50201124:	87aa                	mv	a5,a0
    50201126:	fef42623          	sw	a5,-20(s0)
    5020112a:	fec42783          	lw	a5,-20(s0)
    5020112e:	853e                	mv	a0,a5
    50201130:	4581                	li	a1,0
    50201132:	4601                	li	a2,0
    50201134:	4885                	li	a7,1
    50201136:	00000073          	ecall
    5020113a:	0001                	nop
    5020113c:	6462                	ld	s0,24(sp)
    5020113e:	6105                	addi	sp,sp,32
    50201140:	8082                	ret

0000000050201142 <port_write_ch>:
    50201142:	1101                	addi	sp,sp,-32
    50201144:	ec06                	sd	ra,24(sp)
    50201146:	e822                	sd	s0,16(sp)
    50201148:	1000                	addi	s0,sp,32
    5020114a:	87aa                	mv	a5,a0
    5020114c:	fef407a3          	sb	a5,-17(s0)
    50201150:	fef44783          	lbu	a5,-17(s0)
    50201154:	2781                	sext.w	a5,a5
    50201156:	853e                	mv	a0,a5
    50201158:	fc7ff0ef          	jal	ra,5020111e <sbi_console_putchar>
    5020115c:	0001                	nop
    5020115e:	60e2                	ld	ra,24(sp)
    50201160:	6442                	ld	s0,16(sp)
    50201162:	6105                	addi	sp,sp,32
    50201164:	8082                	ret

0000000050201166 <port_write>:
    50201166:	1101                	addi	sp,sp,-32
    50201168:	ec06                	sd	ra,24(sp)
    5020116a:	e822                	sd	s0,16(sp)
    5020116c:	1000                	addi	s0,sp,32
    5020116e:	fea43423          	sd	a0,-24(s0)
    50201172:	fe843503          	ld	a0,-24(s0)
    50201176:	f87ff0ef          	jal	ra,502010fc <sbi_console_putstr>
    5020117a:	0001                	nop
    5020117c:	60e2                	ld	ra,24(sp)
    5020117e:	6442                	ld	s0,16(sp)
    50201180:	6105                	addi	sp,sp,32
    50201182:	8082                	ret

0000000050201184 <_list_add>:
    50201184:	7179                	addi	sp,sp,-48
    50201186:	f422                	sd	s0,40(sp)
    50201188:	1800                	addi	s0,sp,48
    5020118a:	fea43423          	sd	a0,-24(s0)
    5020118e:	feb43023          	sd	a1,-32(s0)
    50201192:	fcc43c23          	sd	a2,-40(s0)
    50201196:	fd843783          	ld	a5,-40(s0)
    5020119a:	fe843703          	ld	a4,-24(s0)
    5020119e:	e798                	sd	a4,8(a5)
    502011a0:	fe843783          	ld	a5,-24(s0)
    502011a4:	fd843703          	ld	a4,-40(s0)
    502011a8:	e398                	sd	a4,0(a5)
    502011aa:	fe843783          	ld	a5,-24(s0)
    502011ae:	fe043703          	ld	a4,-32(s0)
    502011b2:	e798                	sd	a4,8(a5)
    502011b4:	fe043783          	ld	a5,-32(s0)
    502011b8:	fe843703          	ld	a4,-24(s0)
    502011bc:	e398                	sd	a4,0(a5)
    502011be:	0001                	nop
    502011c0:	7422                	ld	s0,40(sp)
    502011c2:	6145                	addi	sp,sp,48
    502011c4:	8082                	ret

00000000502011c6 <list_add>:
    502011c6:	1101                	addi	sp,sp,-32
    502011c8:	ec06                	sd	ra,24(sp)
    502011ca:	e822                	sd	s0,16(sp)
    502011cc:	1000                	addi	s0,sp,32
    502011ce:	fea43423          	sd	a0,-24(s0)
    502011d2:	feb43023          	sd	a1,-32(s0)
    502011d6:	fe043783          	ld	a5,-32(s0)
    502011da:	639c                	ld	a5,0(a5)
    502011dc:	863e                	mv	a2,a5
    502011de:	fe043583          	ld	a1,-32(s0)
    502011e2:	fe843503          	ld	a0,-24(s0)
    502011e6:	f9fff0ef          	jal	ra,50201184 <_list_add>
    502011ea:	0001                	nop
    502011ec:	60e2                	ld	ra,24(sp)
    502011ee:	6442                	ld	s0,16(sp)
    502011f0:	6105                	addi	sp,sp,32
    502011f2:	8082                	ret

00000000502011f4 <init_pcb_stack>:
    502011f4:	7139                	addi	sp,sp,-64
    502011f6:	fc22                	sd	s0,56(sp)
    502011f8:	0080                	addi	s0,sp,64
    502011fa:	fca43c23          	sd	a0,-40(s0)
    502011fe:	fcb43823          	sd	a1,-48(s0)
    50201202:	fcc43423          	sd	a2,-56(s0)
    50201206:	fcd43023          	sd	a3,-64(s0)
    5020120a:	fd843783          	ld	a5,-40(s0)
    5020120e:	ee078793          	addi	a5,a5,-288
    50201212:	fef43423          	sd	a5,-24(s0)
    50201216:	fc043783          	ld	a5,-64(s0)
    5020121a:	639c                	ld	a5,0(a5)
    5020121c:	ee078713          	addi	a4,a5,-288
    50201220:	fc043783          	ld	a5,-64(s0)
    50201224:	e398                	sd	a4,0(a5)
    50201226:	fe843783          	ld	a5,-24(s0)
    5020122a:	fc843703          	ld	a4,-56(s0)
    5020122e:	e798                	sd	a4,8(a5)
    50201230:	fe843783          	ld	a5,-24(s0)
    50201234:	fd043703          	ld	a4,-48(s0)
    50201238:	eb98                	sd	a4,16(a5)
    5020123a:	00018713          	mv	a4,gp
    5020123e:	fe843783          	ld	a5,-24(s0)
    50201242:	ef98                	sd	a4,24(a5)
    50201244:	0001                	nop
    50201246:	7462                	ld	s0,56(sp)
    50201248:	6121                	addi	sp,sp,64
    5020124a:	8082                	ret

000000005020124c <init_pcb>:
    5020124c:	1101                	addi	sp,sp,-32
    5020124e:	ec06                	sd	ra,24(sp)
    50201250:	e822                	sd	s0,16(sp)
    50201252:	1000                	addi	s0,sp,32
    50201254:	fe042623          	sw	zero,-20(s0)
    50201258:	a225                	j	50201380 <init_pcb+0x134>
    5020125a:	4505                	li	a0,1
    5020125c:	088010ef          	jal	ra,502022e4 <allocPage>
    50201260:	86aa                	mv	a3,a0
    50201262:	00006717          	auipc	a4,0x6
    50201266:	0c670713          	addi	a4,a4,198 # 50207328 <pcb>
    5020126a:	fec42783          	lw	a5,-20(s0)
    5020126e:	079a                	slli	a5,a5,0x6
    50201270:	97ba                	add	a5,a5,a4
    50201272:	e394                	sd	a3,0(a5)
    50201274:	00006717          	auipc	a4,0x6
    50201278:	0b470713          	addi	a4,a4,180 # 50207328 <pcb>
    5020127c:	fec42783          	lw	a5,-20(s0)
    50201280:	079a                	slli	a5,a5,0x6
    50201282:	97ba                	add	a5,a5,a4
    50201284:	6398                	ld	a4,0(a5)
    50201286:	00006697          	auipc	a3,0x6
    5020128a:	0a268693          	addi	a3,a3,162 # 50207328 <pcb>
    5020128e:	fec42783          	lw	a5,-20(s0)
    50201292:	079a                	slli	a5,a5,0x6
    50201294:	97b6                	add	a5,a5,a3
    50201296:	e798                	sd	a4,8(a5)
    50201298:	00006717          	auipc	a4,0x6
    5020129c:	09070713          	addi	a4,a4,144 # 50207328 <pcb>
    502012a0:	fec42783          	lw	a5,-20(s0)
    502012a4:	079a                	slli	a5,a5,0x6
    502012a6:	97ba                	add	a5,a5,a4
    502012a8:	0007b823          	sd	zero,16(a5)
    502012ac:	fec42783          	lw	a5,-20(s0)
    502012b0:	079a                	slli	a5,a5,0x6
    502012b2:	01078713          	addi	a4,a5,16
    502012b6:	00006797          	auipc	a5,0x6
    502012ba:	07278793          	addi	a5,a5,114 # 50207328 <pcb>
    502012be:	97ba                	add	a5,a5,a4
    502012c0:	07a1                	addi	a5,a5,8
    502012c2:	00003597          	auipc	a1,0x3
    502012c6:	4a658593          	addi	a1,a1,1190 # 50204768 <ready_queue>
    502012ca:	853e                	mv	a0,a5
    502012cc:	efbff0ef          	jal	ra,502011c6 <list_add>
    502012d0:	fec42783          	lw	a5,-20(s0)
    502012d4:	2785                	addiw	a5,a5,1
    502012d6:	0007871b          	sext.w	a4,a5
    502012da:	00006697          	auipc	a3,0x6
    502012de:	04e68693          	addi	a3,a3,78 # 50207328 <pcb>
    502012e2:	fec42783          	lw	a5,-20(s0)
    502012e6:	079a                	slli	a5,a5,0x6
    502012e8:	97b6                	add	a5,a5,a3
    502012ea:	d798                	sw	a4,40(a5)
    502012ec:	00003717          	auipc	a4,0x3
    502012f0:	4cc70713          	addi	a4,a4,1228 # 502047b8 <sched1_tasks>
    502012f4:	fec42783          	lw	a5,-20(s0)
    502012f8:	078e                	slli	a5,a5,0x3
    502012fa:	97ba                	add	a5,a5,a4
    502012fc:	639c                	ld	a5,0(a5)
    502012fe:	4798                	lw	a4,8(a5)
    50201300:	00006697          	auipc	a3,0x6
    50201304:	02868693          	addi	a3,a3,40 # 50207328 <pcb>
    50201308:	fec42783          	lw	a5,-20(s0)
    5020130c:	079a                	slli	a5,a5,0x6
    5020130e:	97b6                	add	a5,a5,a3
    50201310:	d7d8                	sw	a4,44(a5)
    50201312:	00006717          	auipc	a4,0x6
    50201316:	01670713          	addi	a4,a4,22 # 50207328 <pcb>
    5020131a:	fec42783          	lw	a5,-20(s0)
    5020131e:	079a                	slli	a5,a5,0x6
    50201320:	97ba                	add	a5,a5,a4
    50201322:	4709                	li	a4,2
    50201324:	db98                	sw	a4,48(a5)
    50201326:	00006717          	auipc	a4,0x6
    5020132a:	00270713          	addi	a4,a4,2 # 50207328 <pcb>
    5020132e:	fec42783          	lw	a5,-20(s0)
    50201332:	079a                	slli	a5,a5,0x6
    50201334:	97ba                	add	a5,a5,a4
    50201336:	6388                	ld	a0,0(a5)
    50201338:	00006717          	auipc	a4,0x6
    5020133c:	ff070713          	addi	a4,a4,-16 # 50207328 <pcb>
    50201340:	fec42783          	lw	a5,-20(s0)
    50201344:	079a                	slli	a5,a5,0x6
    50201346:	97ba                	add	a5,a5,a4
    50201348:	678c                	ld	a1,8(a5)
    5020134a:	00003717          	auipc	a4,0x3
    5020134e:	46e70713          	addi	a4,a4,1134 # 502047b8 <sched1_tasks>
    50201352:	fec42783          	lw	a5,-20(s0)
    50201356:	078e                	slli	a5,a5,0x3
    50201358:	97ba                	add	a5,a5,a4
    5020135a:	639c                	ld	a5,0(a5)
    5020135c:	6390                	ld	a2,0(a5)
    5020135e:	fec42783          	lw	a5,-20(s0)
    50201362:	00679713          	slli	a4,a5,0x6
    50201366:	00006797          	auipc	a5,0x6
    5020136a:	fc278793          	addi	a5,a5,-62 # 50207328 <pcb>
    5020136e:	97ba                	add	a5,a5,a4
    50201370:	86be                	mv	a3,a5
    50201372:	e83ff0ef          	jal	ra,502011f4 <init_pcb_stack>
    50201376:	fec42783          	lw	a5,-20(s0)
    5020137a:	2785                	addiw	a5,a5,1
    5020137c:	fef42623          	sw	a5,-20(s0)
    50201380:	81818793          	addi	a5,gp,-2024 # 50204c78 <num_sched1_tasks>
    50201384:	4398                	lw	a4,0(a5)
    50201386:	fec42783          	lw	a5,-20(s0)
    5020138a:	2781                	sext.w	a5,a5
    5020138c:	ece7c7e3          	blt	a5,a4,5020125a <init_pcb+0xe>
    50201390:	81818793          	addi	a5,gp,-2024 # 50204c78 <num_sched1_tasks>
    50201394:	439c                	lw	a5,0(a5)
    50201396:	fef42623          	sw	a5,-20(s0)
    5020139a:	a281                	j	502014da <init_pcb+0x28e>
    5020139c:	4505                	li	a0,1
    5020139e:	747000ef          	jal	ra,502022e4 <allocPage>
    502013a2:	86aa                	mv	a3,a0
    502013a4:	00006717          	auipc	a4,0x6
    502013a8:	f8470713          	addi	a4,a4,-124 # 50207328 <pcb>
    502013ac:	fec42783          	lw	a5,-20(s0)
    502013b0:	079a                	slli	a5,a5,0x6
    502013b2:	97ba                	add	a5,a5,a4
    502013b4:	e394                	sd	a3,0(a5)
    502013b6:	00006717          	auipc	a4,0x6
    502013ba:	f7270713          	addi	a4,a4,-142 # 50207328 <pcb>
    502013be:	fec42783          	lw	a5,-20(s0)
    502013c2:	079a                	slli	a5,a5,0x6
    502013c4:	97ba                	add	a5,a5,a4
    502013c6:	6398                	ld	a4,0(a5)
    502013c8:	00006697          	auipc	a3,0x6
    502013cc:	f6068693          	addi	a3,a3,-160 # 50207328 <pcb>
    502013d0:	fec42783          	lw	a5,-20(s0)
    502013d4:	079a                	slli	a5,a5,0x6
    502013d6:	97b6                	add	a5,a5,a3
    502013d8:	e798                	sd	a4,8(a5)
    502013da:	00006717          	auipc	a4,0x6
    502013de:	f4e70713          	addi	a4,a4,-178 # 50207328 <pcb>
    502013e2:	fec42783          	lw	a5,-20(s0)
    502013e6:	079a                	slli	a5,a5,0x6
    502013e8:	97ba                	add	a5,a5,a4
    502013ea:	0007b823          	sd	zero,16(a5)
    502013ee:	fec42783          	lw	a5,-20(s0)
    502013f2:	079a                	slli	a5,a5,0x6
    502013f4:	01078713          	addi	a4,a5,16
    502013f8:	00006797          	auipc	a5,0x6
    502013fc:	f3078793          	addi	a5,a5,-208 # 50207328 <pcb>
    50201400:	97ba                	add	a5,a5,a4
    50201402:	07a1                	addi	a5,a5,8
    50201404:	00003597          	auipc	a1,0x3
    50201408:	36458593          	addi	a1,a1,868 # 50204768 <ready_queue>
    5020140c:	853e                	mv	a0,a5
    5020140e:	db9ff0ef          	jal	ra,502011c6 <list_add>
    50201412:	fec42783          	lw	a5,-20(s0)
    50201416:	2785                	addiw	a5,a5,1
    50201418:	0007871b          	sext.w	a4,a5
    5020141c:	00006697          	auipc	a3,0x6
    50201420:	f0c68693          	addi	a3,a3,-244 # 50207328 <pcb>
    50201424:	fec42783          	lw	a5,-20(s0)
    50201428:	079a                	slli	a5,a5,0x6
    5020142a:	97b6                	add	a5,a5,a3
    5020142c:	d798                	sw	a4,40(a5)
    5020142e:	81818793          	addi	a5,gp,-2024 # 50204c78 <num_sched1_tasks>
    50201432:	439c                	lw	a5,0(a5)
    50201434:	fec42703          	lw	a4,-20(s0)
    50201438:	40f707bb          	subw	a5,a4,a5
    5020143c:	2781                	sext.w	a5,a5
    5020143e:	00003717          	auipc	a4,0x3
    50201442:	41a70713          	addi	a4,a4,1050 # 50204858 <lock_tasks>
    50201446:	078e                	slli	a5,a5,0x3
    50201448:	97ba                	add	a5,a5,a4
    5020144a:	639c                	ld	a5,0(a5)
    5020144c:	4798                	lw	a4,8(a5)
    5020144e:	00006697          	auipc	a3,0x6
    50201452:	eda68693          	addi	a3,a3,-294 # 50207328 <pcb>
    50201456:	fec42783          	lw	a5,-20(s0)
    5020145a:	079a                	slli	a5,a5,0x6
    5020145c:	97b6                	add	a5,a5,a3
    5020145e:	d7d8                	sw	a4,44(a5)
    50201460:	00006717          	auipc	a4,0x6
    50201464:	ec870713          	addi	a4,a4,-312 # 50207328 <pcb>
    50201468:	fec42783          	lw	a5,-20(s0)
    5020146c:	079a                	slli	a5,a5,0x6
    5020146e:	97ba                	add	a5,a5,a4
    50201470:	4709                	li	a4,2
    50201472:	db98                	sw	a4,48(a5)
    50201474:	00006717          	auipc	a4,0x6
    50201478:	eb470713          	addi	a4,a4,-332 # 50207328 <pcb>
    5020147c:	fec42783          	lw	a5,-20(s0)
    50201480:	079a                	slli	a5,a5,0x6
    50201482:	97ba                	add	a5,a5,a4
    50201484:	6388                	ld	a0,0(a5)
    50201486:	00006717          	auipc	a4,0x6
    5020148a:	ea270713          	addi	a4,a4,-350 # 50207328 <pcb>
    5020148e:	fec42783          	lw	a5,-20(s0)
    50201492:	079a                	slli	a5,a5,0x6
    50201494:	97ba                	add	a5,a5,a4
    50201496:	678c                	ld	a1,8(a5)
    50201498:	81818793          	addi	a5,gp,-2024 # 50204c78 <num_sched1_tasks>
    5020149c:	439c                	lw	a5,0(a5)
    5020149e:	fec42703          	lw	a4,-20(s0)
    502014a2:	40f707bb          	subw	a5,a4,a5
    502014a6:	2781                	sext.w	a5,a5
    502014a8:	00003717          	auipc	a4,0x3
    502014ac:	3b070713          	addi	a4,a4,944 # 50204858 <lock_tasks>
    502014b0:	078e                	slli	a5,a5,0x3
    502014b2:	97ba                	add	a5,a5,a4
    502014b4:	639c                	ld	a5,0(a5)
    502014b6:	6390                	ld	a2,0(a5)
    502014b8:	fec42783          	lw	a5,-20(s0)
    502014bc:	00679713          	slli	a4,a5,0x6
    502014c0:	00006797          	auipc	a5,0x6
    502014c4:	e6878793          	addi	a5,a5,-408 # 50207328 <pcb>
    502014c8:	97ba                	add	a5,a5,a4
    502014ca:	86be                	mv	a3,a5
    502014cc:	d29ff0ef          	jal	ra,502011f4 <init_pcb_stack>
    502014d0:	fec42783          	lw	a5,-20(s0)
    502014d4:	2785                	addiw	a5,a5,1
    502014d6:	fef42623          	sw	a5,-20(s0)
    502014da:	81818793          	addi	a5,gp,-2024 # 50204c78 <num_sched1_tasks>
    502014de:	4398                	lw	a4,0(a5)
    502014e0:	81c18793          	addi	a5,gp,-2020 # 50204c7c <num_lock_tasks>
    502014e4:	439c                	lw	a5,0(a5)
    502014e6:	9fb9                	addw	a5,a5,a4
    502014e8:	0007871b          	sext.w	a4,a5
    502014ec:	fec42783          	lw	a5,-20(s0)
    502014f0:	2781                	sext.w	a5,a5
    502014f2:	eae7c5e3          	blt	a5,a4,5020139c <init_pcb+0x150>
    502014f6:	00006797          	auipc	a5,0x6
    502014fa:	e2a78793          	addi	a5,a5,-470 # 50207320 <current_running>
    502014fe:	00003717          	auipc	a4,0x3
    50201502:	22a70713          	addi	a4,a4,554 # 50204728 <pid0_pcb>
    50201506:	e398                	sd	a4,0(a5)
    50201508:	0001                	nop
    5020150a:	60e2                	ld	ra,24(sp)
    5020150c:	6442                	ld	s0,16(sp)
    5020150e:	6105                	addi	sp,sp,32
    50201510:	8082                	ret

0000000050201512 <main>:
    50201512:	1141                	addi	sp,sp,-16
    50201514:	e406                	sd	ra,8(sp)
    50201516:	e022                	sd	s0,0(sp)
    50201518:	0800                	addi	s0,sp,16
    5020151a:	d33ff0ef          	jal	ra,5020124c <init_pcb>
    5020151e:	00003517          	auipc	a0,0x3
    50201522:	d8a50513          	addi	a0,a0,-630 # 502042a8 <deadlock_task+0xb0>
    50201526:	073010ef          	jal	ra,50202d98 <printk>
    5020152a:	1f6000ef          	jal	ra,50201720 <init_screen>
    5020152e:	00003517          	auipc	a0,0x3
    50201532:	daa50513          	addi	a0,a0,-598 # 502042d8 <deadlock_task+0xe0>
    50201536:	063010ef          	jal	ra,50202d98 <printk>
    5020153a:	377000ef          	jal	ra,502020b0 <do_scheduler>
    5020153e:	bff5                	j	5020153a <main+0x28>

0000000050201540 <reset_irq_timer>:
    50201540:	1141                	addi	sp,sp,-16
    50201542:	e422                	sd	s0,8(sp)
    50201544:	0800                	addi	s0,sp,16
    50201546:	0001                	nop
    50201548:	6422                	ld	s0,8(sp)
    5020154a:	0141                	addi	sp,sp,16
    5020154c:	8082                	ret

000000005020154e <interrupt_helper>:
    5020154e:	7179                	addi	sp,sp,-48
    50201550:	f422                	sd	s0,40(sp)
    50201552:	1800                	addi	s0,sp,48
    50201554:	fea43423          	sd	a0,-24(s0)
    50201558:	feb43023          	sd	a1,-32(s0)
    5020155c:	fcc43c23          	sd	a2,-40(s0)
    50201560:	0001                	nop
    50201562:	7422                	ld	s0,40(sp)
    50201564:	6145                	addi	sp,sp,48
    50201566:	8082                	ret

0000000050201568 <handle_int>:
    50201568:	7179                	addi	sp,sp,-48
    5020156a:	f422                	sd	s0,40(sp)
    5020156c:	1800                	addi	s0,sp,48
    5020156e:	fea43423          	sd	a0,-24(s0)
    50201572:	feb43023          	sd	a1,-32(s0)
    50201576:	fcc43c23          	sd	a2,-40(s0)
    5020157a:	0001                	nop
    5020157c:	7422                	ld	s0,40(sp)
    5020157e:	6145                	addi	sp,sp,48
    50201580:	8082                	ret

0000000050201582 <init_exception>:
    50201582:	1141                	addi	sp,sp,-16
    50201584:	e422                	sd	s0,8(sp)
    50201586:	0800                	addi	s0,sp,16
    50201588:	0001                	nop
    5020158a:	6422                	ld	s0,8(sp)
    5020158c:	0141                	addi	sp,sp,16
    5020158e:	8082                	ret

0000000050201590 <handle_other>:
    50201590:	7179                	addi	sp,sp,-48
    50201592:	f422                	sd	s0,40(sp)
    50201594:	1800                	addi	s0,sp,48
    50201596:	fea43423          	sd	a0,-24(s0)
    5020159a:	feb43023          	sd	a1,-32(s0)
    5020159e:	fcc43c23          	sd	a2,-40(s0)
    502015a2:	0001                	nop
    502015a4:	7422                	ld	s0,40(sp)
    502015a6:	6145                	addi	sp,sp,48
    502015a8:	8082                	ret

00000000502015aa <vt100_move_cursor>:
    502015aa:	1101                	addi	sp,sp,-32
    502015ac:	ec06                	sd	ra,24(sp)
    502015ae:	e822                	sd	s0,16(sp)
    502015b0:	1000                	addi	s0,sp,32
    502015b2:	87aa                	mv	a5,a0
    502015b4:	872e                	mv	a4,a1
    502015b6:	fef42623          	sw	a5,-20(s0)
    502015ba:	87ba                	mv	a5,a4
    502015bc:	fef42423          	sw	a5,-24(s0)
    502015c0:	ac9ff0ef          	jal	ra,50201088 <disable_preempt>
    502015c4:	fec42703          	lw	a4,-20(s0)
    502015c8:	fe842783          	lw	a5,-24(s0)
    502015cc:	86ba                	mv	a3,a4
    502015ce:	863e                	mv	a2,a5
    502015d0:	45ed                	li	a1,27
    502015d2:	00003517          	auipc	a0,0x3
    502015d6:	d3650513          	addi	a0,a0,-714 # 50204308 <deadlock_task+0x110>
    502015da:	7be010ef          	jal	ra,50202d98 <printk>
    502015de:	00006797          	auipc	a5,0x6
    502015e2:	d4278793          	addi	a5,a5,-702 # 50207320 <current_running>
    502015e6:	639c                	ld	a5,0(a5)
    502015e8:	fec42703          	lw	a4,-20(s0)
    502015ec:	dbd8                	sw	a4,52(a5)
    502015ee:	00006797          	auipc	a5,0x6
    502015f2:	d3278793          	addi	a5,a5,-718 # 50207320 <current_running>
    502015f6:	639c                	ld	a5,0(a5)
    502015f8:	fe842703          	lw	a4,-24(s0)
    502015fc:	df98                	sw	a4,56(a5)
    502015fe:	a63ff0ef          	jal	ra,50201060 <enable_preempt>
    50201602:	0001                	nop
    50201604:	60e2                	ld	ra,24(sp)
    50201606:	6442                	ld	s0,16(sp)
    50201608:	6105                	addi	sp,sp,32
    5020160a:	8082                	ret

000000005020160c <vt100_clear>:
    5020160c:	1141                	addi	sp,sp,-16
    5020160e:	e406                	sd	ra,8(sp)
    50201610:	e022                	sd	s0,0(sp)
    50201612:	0800                	addi	s0,sp,16
    50201614:	45ed                	li	a1,27
    50201616:	00003517          	auipc	a0,0x3
    5020161a:	d0250513          	addi	a0,a0,-766 # 50204318 <deadlock_task+0x120>
    5020161e:	77a010ef          	jal	ra,50202d98 <printk>
    50201622:	0001                	nop
    50201624:	60a2                	ld	ra,8(sp)
    50201626:	6402                	ld	s0,0(sp)
    50201628:	0141                	addi	sp,sp,16
    5020162a:	8082                	ret

000000005020162c <vt100_hidden_cursor>:
    5020162c:	1141                	addi	sp,sp,-16
    5020162e:	e406                	sd	ra,8(sp)
    50201630:	e022                	sd	s0,0(sp)
    50201632:	0800                	addi	s0,sp,16
    50201634:	45ed                	li	a1,27
    50201636:	00003517          	auipc	a0,0x3
    5020163a:	cea50513          	addi	a0,a0,-790 # 50204320 <deadlock_task+0x128>
    5020163e:	75a010ef          	jal	ra,50202d98 <printk>
    50201642:	0001                	nop
    50201644:	60a2                	ld	ra,8(sp)
    50201646:	6402                	ld	s0,0(sp)
    50201648:	0141                	addi	sp,sp,16
    5020164a:	8082                	ret

000000005020164c <screen_write_ch>:
    5020164c:	1101                	addi	sp,sp,-32
    5020164e:	ec22                	sd	s0,24(sp)
    50201650:	1000                	addi	s0,sp,32
    50201652:	87aa                	mv	a5,a0
    50201654:	fef407a3          	sb	a5,-17(s0)
    50201658:	fef44783          	lbu	a5,-17(s0)
    5020165c:	0ff7f713          	andi	a4,a5,255
    50201660:	47a9                	li	a5,10
    50201662:	02f71663          	bne	a4,a5,5020168e <screen_write_ch+0x42>
    50201666:	00005797          	auipc	a5,0x5
    5020166a:	67278793          	addi	a5,a5,1650 # 50206cd8 <screen_cursor_x>
    5020166e:	4705                	li	a4,1
    50201670:	c398                	sw	a4,0(a5)
    50201672:	00005797          	auipc	a5,0x5
    50201676:	66a78793          	addi	a5,a5,1642 # 50206cdc <screen_cursor_y>
    5020167a:	439c                	lw	a5,0(a5)
    5020167c:	2785                	addiw	a5,a5,1
    5020167e:	0007871b          	sext.w	a4,a5
    50201682:	00005797          	auipc	a5,0x5
    50201686:	65a78793          	addi	a5,a5,1626 # 50206cdc <screen_cursor_y>
    5020168a:	c398                	sw	a4,0(a5)
    5020168c:	a085                	j	502016ec <screen_write_ch+0xa0>
    5020168e:	00005797          	auipc	a5,0x5
    50201692:	64e78793          	addi	a5,a5,1614 # 50206cdc <screen_cursor_y>
    50201696:	439c                	lw	a5,0(a5)
    50201698:	37fd                	addiw	a5,a5,-1
    5020169a:	2781                	sext.w	a5,a5
    5020169c:	873e                	mv	a4,a5
    5020169e:	87ba                	mv	a5,a4
    502016a0:	0027979b          	slliw	a5,a5,0x2
    502016a4:	9fb9                	addw	a5,a5,a4
    502016a6:	0047979b          	slliw	a5,a5,0x4
    502016aa:	0007871b          	sext.w	a4,a5
    502016ae:	00005797          	auipc	a5,0x5
    502016b2:	62a78793          	addi	a5,a5,1578 # 50206cd8 <screen_cursor_x>
    502016b6:	439c                	lw	a5,0(a5)
    502016b8:	37fd                	addiw	a5,a5,-1
    502016ba:	2781                	sext.w	a5,a5
    502016bc:	9fb9                	addw	a5,a5,a4
    502016be:	2781                	sext.w	a5,a5
    502016c0:	00003717          	auipc	a4,0x3
    502016c4:	5e070713          	addi	a4,a4,1504 # 50204ca0 <new_screen>
    502016c8:	97ba                	add	a5,a5,a4
    502016ca:	fef44703          	lbu	a4,-17(s0)
    502016ce:	00e78023          	sb	a4,0(a5)
    502016d2:	00005797          	auipc	a5,0x5
    502016d6:	60678793          	addi	a5,a5,1542 # 50206cd8 <screen_cursor_x>
    502016da:	439c                	lw	a5,0(a5)
    502016dc:	2785                	addiw	a5,a5,1
    502016de:	0007871b          	sext.w	a4,a5
    502016e2:	00005797          	auipc	a5,0x5
    502016e6:	5f678793          	addi	a5,a5,1526 # 50206cd8 <screen_cursor_x>
    502016ea:	c398                	sw	a4,0(a5)
    502016ec:	00006797          	auipc	a5,0x6
    502016f0:	c3478793          	addi	a5,a5,-972 # 50207320 <current_running>
    502016f4:	639c                	ld	a5,0(a5)
    502016f6:	00005717          	auipc	a4,0x5
    502016fa:	5e270713          	addi	a4,a4,1506 # 50206cd8 <screen_cursor_x>
    502016fe:	4318                	lw	a4,0(a4)
    50201700:	dbd8                	sw	a4,52(a5)
    50201702:	00006797          	auipc	a5,0x6
    50201706:	c1e78793          	addi	a5,a5,-994 # 50207320 <current_running>
    5020170a:	639c                	ld	a5,0(a5)
    5020170c:	00005717          	auipc	a4,0x5
    50201710:	5d070713          	addi	a4,a4,1488 # 50206cdc <screen_cursor_y>
    50201714:	4318                	lw	a4,0(a4)
    50201716:	df98                	sw	a4,56(a5)
    50201718:	0001                	nop
    5020171a:	6462                	ld	s0,24(sp)
    5020171c:	6105                	addi	sp,sp,32
    5020171e:	8082                	ret

0000000050201720 <init_screen>:
    50201720:	1141                	addi	sp,sp,-16
    50201722:	e406                	sd	ra,8(sp)
    50201724:	e022                	sd	s0,0(sp)
    50201726:	0800                	addi	s0,sp,16
    50201728:	f05ff0ef          	jal	ra,5020162c <vt100_hidden_cursor>
    5020172c:	ee1ff0ef          	jal	ra,5020160c <vt100_clear>
    50201730:	0001                	nop
    50201732:	60a2                	ld	ra,8(sp)
    50201734:	6402                	ld	s0,0(sp)
    50201736:	0141                	addi	sp,sp,16
    50201738:	8082                	ret

000000005020173a <screen_clear>:
    5020173a:	1101                	addi	sp,sp,-32
    5020173c:	ec06                	sd	ra,24(sp)
    5020173e:	e822                	sd	s0,16(sp)
    50201740:	1000                	addi	s0,sp,32
    50201742:	fe042623          	sw	zero,-20(s0)
    50201746:	a8a1                	j	5020179e <screen_clear+0x64>
    50201748:	fe042423          	sw	zero,-24(s0)
    5020174c:	a825                	j	50201784 <screen_clear+0x4a>
    5020174e:	fec42703          	lw	a4,-20(s0)
    50201752:	87ba                	mv	a5,a4
    50201754:	0027979b          	slliw	a5,a5,0x2
    50201758:	9fb9                	addw	a5,a5,a4
    5020175a:	0047979b          	slliw	a5,a5,0x4
    5020175e:	2781                	sext.w	a5,a5
    50201760:	fe842703          	lw	a4,-24(s0)
    50201764:	9fb9                	addw	a5,a5,a4
    50201766:	2781                	sext.w	a5,a5
    50201768:	00003717          	auipc	a4,0x3
    5020176c:	53870713          	addi	a4,a4,1336 # 50204ca0 <new_screen>
    50201770:	97ba                	add	a5,a5,a4
    50201772:	02000713          	li	a4,32
    50201776:	00e78023          	sb	a4,0(a5)
    5020177a:	fe842783          	lw	a5,-24(s0)
    5020177e:	2785                	addiw	a5,a5,1
    50201780:	fef42423          	sw	a5,-24(s0)
    50201784:	fe842783          	lw	a5,-24(s0)
    50201788:	0007871b          	sext.w	a4,a5
    5020178c:	04f00793          	li	a5,79
    50201790:	fae7dfe3          	bge	a5,a4,5020174e <screen_clear+0x14>
    50201794:	fec42783          	lw	a5,-20(s0)
    50201798:	2785                	addiw	a5,a5,1
    5020179a:	fef42623          	sw	a5,-20(s0)
    5020179e:	fec42783          	lw	a5,-20(s0)
    502017a2:	0007871b          	sext.w	a4,a5
    502017a6:	03100793          	li	a5,49
    502017aa:	f8e7dfe3          	bge	a5,a4,50201748 <screen_clear+0xe>
    502017ae:	00005797          	auipc	a5,0x5
    502017b2:	52a78793          	addi	a5,a5,1322 # 50206cd8 <screen_cursor_x>
    502017b6:	4705                	li	a4,1
    502017b8:	c398                	sw	a4,0(a5)
    502017ba:	00005797          	auipc	a5,0x5
    502017be:	52278793          	addi	a5,a5,1314 # 50206cdc <screen_cursor_y>
    502017c2:	4705                	li	a4,1
    502017c4:	c398                	sw	a4,0(a5)
    502017c6:	0d0000ef          	jal	ra,50201896 <screen_reflush>
    502017ca:	0001                	nop
    502017cc:	60e2                	ld	ra,24(sp)
    502017ce:	6442                	ld	s0,16(sp)
    502017d0:	6105                	addi	sp,sp,32
    502017d2:	8082                	ret

00000000502017d4 <screen_move_cursor>:
    502017d4:	1101                	addi	sp,sp,-32
    502017d6:	ec22                	sd	s0,24(sp)
    502017d8:	1000                	addi	s0,sp,32
    502017da:	87aa                	mv	a5,a0
    502017dc:	872e                	mv	a4,a1
    502017de:	fef42623          	sw	a5,-20(s0)
    502017e2:	87ba                	mv	a5,a4
    502017e4:	fef42423          	sw	a5,-24(s0)
    502017e8:	00005797          	auipc	a5,0x5
    502017ec:	4f078793          	addi	a5,a5,1264 # 50206cd8 <screen_cursor_x>
    502017f0:	fec42703          	lw	a4,-20(s0)
    502017f4:	c398                	sw	a4,0(a5)
    502017f6:	00005797          	auipc	a5,0x5
    502017fa:	4e678793          	addi	a5,a5,1254 # 50206cdc <screen_cursor_y>
    502017fe:	fe842703          	lw	a4,-24(s0)
    50201802:	c398                	sw	a4,0(a5)
    50201804:	00006797          	auipc	a5,0x6
    50201808:	b1c78793          	addi	a5,a5,-1252 # 50207320 <current_running>
    5020180c:	639c                	ld	a5,0(a5)
    5020180e:	00005717          	auipc	a4,0x5
    50201812:	4ca70713          	addi	a4,a4,1226 # 50206cd8 <screen_cursor_x>
    50201816:	4318                	lw	a4,0(a4)
    50201818:	dbd8                	sw	a4,52(a5)
    5020181a:	00006797          	auipc	a5,0x6
    5020181e:	b0678793          	addi	a5,a5,-1274 # 50207320 <current_running>
    50201822:	639c                	ld	a5,0(a5)
    50201824:	00005717          	auipc	a4,0x5
    50201828:	4b870713          	addi	a4,a4,1208 # 50206cdc <screen_cursor_y>
    5020182c:	4318                	lw	a4,0(a4)
    5020182e:	df98                	sw	a4,56(a5)
    50201830:	0001                	nop
    50201832:	6462                	ld	s0,24(sp)
    50201834:	6105                	addi	sp,sp,32
    50201836:	8082                	ret

0000000050201838 <screen_write>:
    50201838:	7179                	addi	sp,sp,-48
    5020183a:	f406                	sd	ra,40(sp)
    5020183c:	f022                	sd	s0,32(sp)
    5020183e:	1800                	addi	s0,sp,48
    50201840:	fca43c23          	sd	a0,-40(s0)
    50201844:	fe042623          	sw	zero,-20(s0)
    50201848:	fd843503          	ld	a0,-40(s0)
    5020184c:	38b000ef          	jal	ra,502023d6 <kstrlen>
    50201850:	87aa                	mv	a5,a0
    50201852:	fef42423          	sw	a5,-24(s0)
    50201856:	fe042623          	sw	zero,-20(s0)
    5020185a:	a005                	j	5020187a <screen_write+0x42>
    5020185c:	fec42783          	lw	a5,-20(s0)
    50201860:	fd843703          	ld	a4,-40(s0)
    50201864:	97ba                	add	a5,a5,a4
    50201866:	0007c783          	lbu	a5,0(a5)
    5020186a:	853e                	mv	a0,a5
    5020186c:	de1ff0ef          	jal	ra,5020164c <screen_write_ch>
    50201870:	fec42783          	lw	a5,-20(s0)
    50201874:	2785                	addiw	a5,a5,1
    50201876:	fef42623          	sw	a5,-20(s0)
    5020187a:	fec42703          	lw	a4,-20(s0)
    5020187e:	fe842783          	lw	a5,-24(s0)
    50201882:	2701                	sext.w	a4,a4
    50201884:	2781                	sext.w	a5,a5
    50201886:	fcf74be3          	blt	a4,a5,5020185c <screen_write+0x24>
    5020188a:	0001                	nop
    5020188c:	0001                	nop
    5020188e:	70a2                	ld	ra,40(sp)
    50201890:	7402                	ld	s0,32(sp)
    50201892:	6145                	addi	sp,sp,48
    50201894:	8082                	ret

0000000050201896 <screen_reflush>:
    50201896:	1101                	addi	sp,sp,-32
    50201898:	ec06                	sd	ra,24(sp)
    5020189a:	e822                	sd	s0,16(sp)
    5020189c:	1000                	addi	s0,sp,32
    5020189e:	fe042623          	sw	zero,-20(s0)
    502018a2:	aa31                	j	502019be <screen_reflush+0x128>
    502018a4:	fe042423          	sw	zero,-24(s0)
    502018a8:	a8f5                	j	502019a4 <screen_reflush+0x10e>
    502018aa:	fec42703          	lw	a4,-20(s0)
    502018ae:	87ba                	mv	a5,a4
    502018b0:	0027979b          	slliw	a5,a5,0x2
    502018b4:	9fb9                	addw	a5,a5,a4
    502018b6:	0047979b          	slliw	a5,a5,0x4
    502018ba:	2781                	sext.w	a5,a5
    502018bc:	fe842703          	lw	a4,-24(s0)
    502018c0:	9fb9                	addw	a5,a5,a4
    502018c2:	2781                	sext.w	a5,a5
    502018c4:	00003717          	auipc	a4,0x3
    502018c8:	3dc70713          	addi	a4,a4,988 # 50204ca0 <new_screen>
    502018cc:	97ba                	add	a5,a5,a4
    502018ce:	0007c683          	lbu	a3,0(a5)
    502018d2:	fec42703          	lw	a4,-20(s0)
    502018d6:	87ba                	mv	a5,a4
    502018d8:	0027979b          	slliw	a5,a5,0x2
    502018dc:	9fb9                	addw	a5,a5,a4
    502018de:	0047979b          	slliw	a5,a5,0x4
    502018e2:	2781                	sext.w	a5,a5
    502018e4:	fe842703          	lw	a4,-24(s0)
    502018e8:	9fb9                	addw	a5,a5,a4
    502018ea:	2781                	sext.w	a5,a5
    502018ec:	00004717          	auipc	a4,0x4
    502018f0:	35470713          	addi	a4,a4,852 # 50205c40 <old_screen>
    502018f4:	97ba                	add	a5,a5,a4
    502018f6:	0007c783          	lbu	a5,0(a5)
    502018fa:	8736                	mv	a4,a3
    502018fc:	08f70f63          	beq	a4,a5,5020199a <screen_reflush+0x104>
    50201900:	fe842783          	lw	a5,-24(s0)
    50201904:	2785                	addiw	a5,a5,1
    50201906:	0007871b          	sext.w	a4,a5
    5020190a:	fec42783          	lw	a5,-20(s0)
    5020190e:	2785                	addiw	a5,a5,1
    50201910:	2781                	sext.w	a5,a5
    50201912:	85be                	mv	a1,a5
    50201914:	853a                	mv	a0,a4
    50201916:	c95ff0ef          	jal	ra,502015aa <vt100_move_cursor>
    5020191a:	fec42703          	lw	a4,-20(s0)
    5020191e:	87ba                	mv	a5,a4
    50201920:	0027979b          	slliw	a5,a5,0x2
    50201924:	9fb9                	addw	a5,a5,a4
    50201926:	0047979b          	slliw	a5,a5,0x4
    5020192a:	2781                	sext.w	a5,a5
    5020192c:	fe842703          	lw	a4,-24(s0)
    50201930:	9fb9                	addw	a5,a5,a4
    50201932:	2781                	sext.w	a5,a5
    50201934:	00003717          	auipc	a4,0x3
    50201938:	36c70713          	addi	a4,a4,876 # 50204ca0 <new_screen>
    5020193c:	97ba                	add	a5,a5,a4
    5020193e:	0007c783          	lbu	a5,0(a5)
    50201942:	853e                	mv	a0,a5
    50201944:	ffeff0ef          	jal	ra,50201142 <port_write_ch>
    50201948:	fec42703          	lw	a4,-20(s0)
    5020194c:	87ba                	mv	a5,a4
    5020194e:	0027979b          	slliw	a5,a5,0x2
    50201952:	9fb9                	addw	a5,a5,a4
    50201954:	0047979b          	slliw	a5,a5,0x4
    50201958:	2781                	sext.w	a5,a5
    5020195a:	fe842703          	lw	a4,-24(s0)
    5020195e:	9fb9                	addw	a5,a5,a4
    50201960:	0007869b          	sext.w	a3,a5
    50201964:	fec42703          	lw	a4,-20(s0)
    50201968:	87ba                	mv	a5,a4
    5020196a:	0027979b          	slliw	a5,a5,0x2
    5020196e:	9fb9                	addw	a5,a5,a4
    50201970:	0047979b          	slliw	a5,a5,0x4
    50201974:	2781                	sext.w	a5,a5
    50201976:	fe842703          	lw	a4,-24(s0)
    5020197a:	9fb9                	addw	a5,a5,a4
    5020197c:	2781                	sext.w	a5,a5
    5020197e:	00003717          	auipc	a4,0x3
    50201982:	32270713          	addi	a4,a4,802 # 50204ca0 <new_screen>
    50201986:	9736                	add	a4,a4,a3
    50201988:	00074703          	lbu	a4,0(a4)
    5020198c:	00004697          	auipc	a3,0x4
    50201990:	2b468693          	addi	a3,a3,692 # 50205c40 <old_screen>
    50201994:	97b6                	add	a5,a5,a3
    50201996:	00e78023          	sb	a4,0(a5)
    5020199a:	fe842783          	lw	a5,-24(s0)
    5020199e:	2785                	addiw	a5,a5,1
    502019a0:	fef42423          	sw	a5,-24(s0)
    502019a4:	fe842783          	lw	a5,-24(s0)
    502019a8:	0007871b          	sext.w	a4,a5
    502019ac:	04f00793          	li	a5,79
    502019b0:	eee7dde3          	bge	a5,a4,502018aa <screen_reflush+0x14>
    502019b4:	fec42783          	lw	a5,-20(s0)
    502019b8:	2785                	addiw	a5,a5,1
    502019ba:	fef42623          	sw	a5,-20(s0)
    502019be:	fec42783          	lw	a5,-20(s0)
    502019c2:	0007871b          	sext.w	a4,a5
    502019c6:	03100793          	li	a5,49
    502019ca:	ece7dde3          	bge	a5,a4,502018a4 <screen_reflush+0xe>
    502019ce:	00005797          	auipc	a5,0x5
    502019d2:	30a78793          	addi	a5,a5,778 # 50206cd8 <screen_cursor_x>
    502019d6:	4398                	lw	a4,0(a5)
    502019d8:	00005797          	auipc	a5,0x5
    502019dc:	30478793          	addi	a5,a5,772 # 50206cdc <screen_cursor_y>
    502019e0:	439c                	lw	a5,0(a5)
    502019e2:	85be                	mv	a1,a5
    502019e4:	853a                	mv	a0,a4
    502019e6:	bc5ff0ef          	jal	ra,502015aa <vt100_move_cursor>
    502019ea:	0001                	nop
    502019ec:	60e2                	ld	ra,24(sp)
    502019ee:	6442                	ld	s0,16(sp)
    502019f0:	6105                	addi	sp,sp,32
    502019f2:	8082                	ret

00000000502019f4 <init_list_head>:
    502019f4:	1101                	addi	sp,sp,-32
    502019f6:	ec22                	sd	s0,24(sp)
    502019f8:	1000                	addi	s0,sp,32
    502019fa:	fea43423          	sd	a0,-24(s0)
    502019fe:	fe843783          	ld	a5,-24(s0)
    50201a02:	fe843703          	ld	a4,-24(s0)
    50201a06:	e398                	sd	a4,0(a5)
    50201a08:	fe843783          	ld	a5,-24(s0)
    50201a0c:	fe843703          	ld	a4,-24(s0)
    50201a10:	e798                	sd	a4,8(a5)
    50201a12:	0001                	nop
    50201a14:	6462                	ld	s0,24(sp)
    50201a16:	6105                	addi	sp,sp,32
    50201a18:	8082                	ret

0000000050201a1a <list_empty>:
    50201a1a:	1101                	addi	sp,sp,-32
    50201a1c:	ec22                	sd	s0,24(sp)
    50201a1e:	1000                	addi	s0,sp,32
    50201a20:	fea43423          	sd	a0,-24(s0)
    50201a24:	fe843783          	ld	a5,-24(s0)
    50201a28:	639c                	ld	a5,0(a5)
    50201a2a:	fe843703          	ld	a4,-24(s0)
    50201a2e:	40f707b3          	sub	a5,a4,a5
    50201a32:	0017b793          	seqz	a5,a5
    50201a36:	0ff7f793          	andi	a5,a5,255
    50201a3a:	2781                	sext.w	a5,a5
    50201a3c:	853e                	mv	a0,a5
    50201a3e:	6462                	ld	s0,24(sp)
    50201a40:	6105                	addi	sp,sp,32
    50201a42:	8082                	ret

0000000050201a44 <atomic_swap_d>:
    50201a44:	7179                	addi	sp,sp,-48
    50201a46:	f422                	sd	s0,40(sp)
    50201a48:	1800                	addi	s0,sp,48
    50201a4a:	fca43c23          	sd	a0,-40(s0)
    50201a4e:	fcb43823          	sd	a1,-48(s0)
    50201a52:	fd043783          	ld	a5,-48(s0)
    50201a56:	fd843703          	ld	a4,-40(s0)
    50201a5a:	0ee7b72f          	amoswap.d.aqrl	a4,a4,(a5)
    50201a5e:	fee43423          	sd	a4,-24(s0)
    50201a62:	fe843783          	ld	a5,-24(s0)
    50201a66:	853e                	mv	a0,a5
    50201a68:	7422                	ld	s0,40(sp)
    50201a6a:	6145                	addi	sp,sp,48
    50201a6c:	8082                	ret

0000000050201a6e <spin_lock_init>:
    50201a6e:	1101                	addi	sp,sp,-32
    50201a70:	ec06                	sd	ra,24(sp)
    50201a72:	e822                	sd	s0,16(sp)
    50201a74:	1000                	addi	s0,sp,32
    50201a76:	fea43423          	sd	a0,-24(s0)
    50201a7a:	fe843783          	ld	a5,-24(s0)
    50201a7e:	85be                	mv	a1,a5
    50201a80:	4501                	li	a0,0
    50201a82:	fc3ff0ef          	jal	ra,50201a44 <atomic_swap_d>
    50201a86:	0001                	nop
    50201a88:	60e2                	ld	ra,24(sp)
    50201a8a:	6442                	ld	s0,16(sp)
    50201a8c:	6105                	addi	sp,sp,32
    50201a8e:	8082                	ret

0000000050201a90 <spin_lock_try_acquire>:
    50201a90:	7179                	addi	sp,sp,-48
    50201a92:	f422                	sd	s0,40(sp)
    50201a94:	1800                	addi	s0,sp,48
    50201a96:	fca43c23          	sd	a0,-40(s0)
    50201a9a:	fe042623          	sw	zero,-20(s0)
    50201a9e:	a819                	j	50201ab4 <spin_lock_try_acquire+0x24>
    50201aa0:	fd843783          	ld	a5,-40(s0)
    50201aa4:	439c                	lw	a5,0(a5)
    50201aa6:	2781                	sext.w	a5,a5
    50201aa8:	cf99                	beqz	a5,50201ac6 <spin_lock_try_acquire+0x36>
    50201aaa:	fec42783          	lw	a5,-20(s0)
    50201aae:	2785                	addiw	a5,a5,1
    50201ab0:	fef42623          	sw	a5,-20(s0)
    50201ab4:	fec42783          	lw	a5,-20(s0)
    50201ab8:	0007871b          	sext.w	a4,a5
    50201abc:	3e700793          	li	a5,999
    50201ac0:	fee7d0e3          	bge	a5,a4,50201aa0 <spin_lock_try_acquire+0x10>
    50201ac4:	a011                	j	50201ac8 <spin_lock_try_acquire+0x38>
    50201ac6:	0001                	nop
    50201ac8:	fd843783          	ld	a5,-40(s0)
    50201acc:	439c                	lw	a5,0(a5)
    50201ace:	2781                	sext.w	a5,a5
    50201ad0:	e399                	bnez	a5,50201ad6 <spin_lock_try_acquire+0x46>
    50201ad2:	4785                	li	a5,1
    50201ad4:	a011                	j	50201ad8 <spin_lock_try_acquire+0x48>
    50201ad6:	4781                	li	a5,0
    50201ad8:	853e                	mv	a0,a5
    50201ada:	7422                	ld	s0,40(sp)
    50201adc:	6145                	addi	sp,sp,48
    50201ade:	8082                	ret

0000000050201ae0 <spin_lock_acquire>:
    50201ae0:	1101                	addi	sp,sp,-32
    50201ae2:	ec06                	sd	ra,24(sp)
    50201ae4:	e822                	sd	s0,16(sp)
    50201ae6:	1000                	addi	s0,sp,32
    50201ae8:	fea43423          	sd	a0,-24(s0)
    50201aec:	a019                	j	50201af2 <spin_lock_acquire+0x12>
    50201aee:	5c2000ef          	jal	ra,502020b0 <do_scheduler>
    50201af2:	fe843503          	ld	a0,-24(s0)
    50201af6:	f9bff0ef          	jal	ra,50201a90 <spin_lock_try_acquire>
    50201afa:	87aa                	mv	a5,a0
    50201afc:	dbed                	beqz	a5,50201aee <spin_lock_acquire+0xe>
    50201afe:	fe843783          	ld	a5,-24(s0)
    50201b02:	85be                	mv	a1,a5
    50201b04:	4505                	li	a0,1
    50201b06:	f3fff0ef          	jal	ra,50201a44 <atomic_swap_d>
    50201b0a:	0001                	nop
    50201b0c:	60e2                	ld	ra,24(sp)
    50201b0e:	6442                	ld	s0,16(sp)
    50201b10:	6105                	addi	sp,sp,32
    50201b12:	8082                	ret

0000000050201b14 <spin_lock_release>:
    50201b14:	1101                	addi	sp,sp,-32
    50201b16:	ec06                	sd	ra,24(sp)
    50201b18:	e822                	sd	s0,16(sp)
    50201b1a:	1000                	addi	s0,sp,32
    50201b1c:	fea43423          	sd	a0,-24(s0)
    50201b20:	fe843783          	ld	a5,-24(s0)
    50201b24:	85be                	mv	a1,a5
    50201b26:	4501                	li	a0,0
    50201b28:	f1dff0ef          	jal	ra,50201a44 <atomic_swap_d>
    50201b2c:	0001                	nop
    50201b2e:	60e2                	ld	ra,24(sp)
    50201b30:	6442                	ld	s0,16(sp)
    50201b32:	6105                	addi	sp,sp,32
    50201b34:	8082                	ret

0000000050201b36 <do_mutex_lock_init>:
    50201b36:	1101                	addi	sp,sp,-32
    50201b38:	ec06                	sd	ra,24(sp)
    50201b3a:	e822                	sd	s0,16(sp)
    50201b3c:	1000                	addi	s0,sp,32
    50201b3e:	fea43423          	sd	a0,-24(s0)
    50201b42:	fe843783          	ld	a5,-24(s0)
    50201b46:	0007a023          	sw	zero,0(a5)
    50201b4a:	fe843783          	ld	a5,-24(s0)
    50201b4e:	07a1                	addi	a5,a5,8
    50201b50:	853e                	mv	a0,a5
    50201b52:	ea3ff0ef          	jal	ra,502019f4 <init_list_head>
    50201b56:	0001                	nop
    50201b58:	60e2                	ld	ra,24(sp)
    50201b5a:	6442                	ld	s0,16(sp)
    50201b5c:	6105                	addi	sp,sp,32
    50201b5e:	8082                	ret

0000000050201b60 <do_mutex_lock_acquire>:
    50201b60:	1101                	addi	sp,sp,-32
    50201b62:	ec06                	sd	ra,24(sp)
    50201b64:	e822                	sd	s0,16(sp)
    50201b66:	1000                	addi	s0,sp,32
    50201b68:	fea43423          	sd	a0,-24(s0)
    50201b6c:	a00d                	j	50201b8e <do_mutex_lock_acquire+0x2e>
    50201b6e:	00005797          	auipc	a5,0x5
    50201b72:	7b278793          	addi	a5,a5,1970 # 50207320 <current_running>
    50201b76:	639c                	ld	a5,0(a5)
    50201b78:	01878713          	addi	a4,a5,24
    50201b7c:	fe843783          	ld	a5,-24(s0)
    50201b80:	07a1                	addi	a5,a5,8
    50201b82:	85be                	mv	a1,a5
    50201b84:	853a                	mv	a0,a4
    50201b86:	624000ef          	jal	ra,502021aa <do_block>
    50201b8a:	526000ef          	jal	ra,502020b0 <do_scheduler>
    50201b8e:	fe843783          	ld	a5,-24(s0)
    50201b92:	439c                	lw	a5,0(a5)
    50201b94:	2781                	sext.w	a5,a5
    50201b96:	873e                	mv	a4,a5
    50201b98:	4785                	li	a5,1
    50201b9a:	fcf70ae3          	beq	a4,a5,50201b6e <do_mutex_lock_acquire+0xe>
    50201b9e:	fe843783          	ld	a5,-24(s0)
    50201ba2:	4705                	li	a4,1
    50201ba4:	c398                	sw	a4,0(a5)
    50201ba6:	0001                	nop
    50201ba8:	60e2                	ld	ra,24(sp)
    50201baa:	6442                	ld	s0,16(sp)
    50201bac:	6105                	addi	sp,sp,32
    50201bae:	8082                	ret

0000000050201bb0 <do_mutex_lock_release>:
    50201bb0:	1101                	addi	sp,sp,-32
    50201bb2:	ec06                	sd	ra,24(sp)
    50201bb4:	e822                	sd	s0,16(sp)
    50201bb6:	1000                	addi	s0,sp,32
    50201bb8:	fea43423          	sd	a0,-24(s0)
    50201bbc:	fe843783          	ld	a5,-24(s0)
    50201bc0:	0007a023          	sw	zero,0(a5)
    50201bc4:	fe843783          	ld	a5,-24(s0)
    50201bc8:	07a1                	addi	a5,a5,8
    50201bca:	853e                	mv	a0,a5
    50201bcc:	e4fff0ef          	jal	ra,50201a1a <list_empty>
    50201bd0:	87aa                	mv	a5,a0
    50201bd2:	e799                	bnez	a5,50201be0 <do_mutex_lock_release+0x30>
    50201bd4:	fe843783          	ld	a5,-24(s0)
    50201bd8:	6b9c                	ld	a5,16(a5)
    50201bda:	853e                	mv	a0,a5
    50201bdc:	60e000ef          	jal	ra,502021ea <do_unblock>
    50201be0:	0001                	nop
    50201be2:	60e2                	ld	ra,24(sp)
    50201be4:	6442                	ld	s0,16(sp)
    50201be6:	6105                	addi	sp,sp,32
    50201be8:	8082                	ret

0000000050201bea <init_list_head>:
    50201bea:	1101                	addi	sp,sp,-32
    50201bec:	ec22                	sd	s0,24(sp)
    50201bee:	1000                	addi	s0,sp,32
    50201bf0:	fea43423          	sd	a0,-24(s0)
    50201bf4:	fe843783          	ld	a5,-24(s0)
    50201bf8:	fe843703          	ld	a4,-24(s0)
    50201bfc:	e398                	sd	a4,0(a5)
    50201bfe:	fe843783          	ld	a5,-24(s0)
    50201c02:	fe843703          	ld	a4,-24(s0)
    50201c06:	e798                	sd	a4,8(a5)
    50201c08:	0001                	nop
    50201c0a:	6462                	ld	s0,24(sp)
    50201c0c:	6105                	addi	sp,sp,32
    50201c0e:	8082                	ret

0000000050201c10 <_list_add>:
    50201c10:	7179                	addi	sp,sp,-48
    50201c12:	f422                	sd	s0,40(sp)
    50201c14:	1800                	addi	s0,sp,48
    50201c16:	fea43423          	sd	a0,-24(s0)
    50201c1a:	feb43023          	sd	a1,-32(s0)
    50201c1e:	fcc43c23          	sd	a2,-40(s0)
    50201c22:	fd843783          	ld	a5,-40(s0)
    50201c26:	fe843703          	ld	a4,-24(s0)
    50201c2a:	e798                	sd	a4,8(a5)
    50201c2c:	fe843783          	ld	a5,-24(s0)
    50201c30:	fd843703          	ld	a4,-40(s0)
    50201c34:	e398                	sd	a4,0(a5)
    50201c36:	fe843783          	ld	a5,-24(s0)
    50201c3a:	fe043703          	ld	a4,-32(s0)
    50201c3e:	e798                	sd	a4,8(a5)
    50201c40:	fe043783          	ld	a5,-32(s0)
    50201c44:	fe843703          	ld	a4,-24(s0)
    50201c48:	e398                	sd	a4,0(a5)
    50201c4a:	0001                	nop
    50201c4c:	7422                	ld	s0,40(sp)
    50201c4e:	6145                	addi	sp,sp,48
    50201c50:	8082                	ret

0000000050201c52 <list_add_tail>:
    50201c52:	1101                	addi	sp,sp,-32
    50201c54:	ec06                	sd	ra,24(sp)
    50201c56:	e822                	sd	s0,16(sp)
    50201c58:	1000                	addi	s0,sp,32
    50201c5a:	fea43423          	sd	a0,-24(s0)
    50201c5e:	feb43023          	sd	a1,-32(s0)
    50201c62:	fe043783          	ld	a5,-32(s0)
    50201c66:	679c                	ld	a5,8(a5)
    50201c68:	fe043603          	ld	a2,-32(s0)
    50201c6c:	85be                	mv	a1,a5
    50201c6e:	fe843503          	ld	a0,-24(s0)
    50201c72:	f9fff0ef          	jal	ra,50201c10 <_list_add>
    50201c76:	0001                	nop
    50201c78:	60e2                	ld	ra,24(sp)
    50201c7a:	6442                	ld	s0,16(sp)
    50201c7c:	6105                	addi	sp,sp,32
    50201c7e:	8082                	ret

0000000050201c80 <list_empty>:
    50201c80:	1101                	addi	sp,sp,-32
    50201c82:	ec22                	sd	s0,24(sp)
    50201c84:	1000                	addi	s0,sp,32
    50201c86:	fea43423          	sd	a0,-24(s0)
    50201c8a:	fe843783          	ld	a5,-24(s0)
    50201c8e:	639c                	ld	a5,0(a5)
    50201c90:	fe843703          	ld	a4,-24(s0)
    50201c94:	40f707b3          	sub	a5,a4,a5
    50201c98:	0017b793          	seqz	a5,a5
    50201c9c:	0ff7f793          	andi	a5,a5,255
    50201ca0:	2781                	sext.w	a5,a5
    50201ca2:	853e                	mv	a0,a5
    50201ca4:	6462                	ld	s0,24(sp)
    50201ca6:	6105                	addi	sp,sp,32
    50201ca8:	8082                	ret

0000000050201caa <_panic>:
    50201caa:	7179                	addi	sp,sp,-48
    50201cac:	f406                	sd	ra,40(sp)
    50201cae:	f022                	sd	s0,32(sp)
    50201cb0:	1800                	addi	s0,sp,48
    50201cb2:	fea43423          	sd	a0,-24(s0)
    50201cb6:	87ae                	mv	a5,a1
    50201cb8:	fcc43c23          	sd	a2,-40(s0)
    50201cbc:	fef42223          	sw	a5,-28(s0)
    50201cc0:	fe442783          	lw	a5,-28(s0)
    50201cc4:	86be                	mv	a3,a5
    50201cc6:	fe843603          	ld	a2,-24(s0)
    50201cca:	fd843583          	ld	a1,-40(s0)
    50201cce:	00002517          	auipc	a0,0x2
    50201cd2:	65a50513          	addi	a0,a0,1626 # 50204328 <deadlock_task+0x130>
    50201cd6:	0c2010ef          	jal	ra,50202d98 <printk>
    50201cda:	a001                	j	50201cda <_panic+0x30>

0000000050201cdc <init_system_futex>:
    50201cdc:	1101                	addi	sp,sp,-32
    50201cde:	ec06                	sd	ra,24(sp)
    50201ce0:	e822                	sd	s0,16(sp)
    50201ce2:	1000                	addi	s0,sp,32
    50201ce4:	ba4ff0ef          	jal	ra,50201088 <disable_preempt>
    50201ce8:	fe042623          	sw	zero,-20(s0)
    50201cec:	a015                	j	50201d10 <init_system_futex+0x34>
    50201cee:	fec42783          	lw	a5,-20(s0)
    50201cf2:	00479713          	slli	a4,a5,0x4
    50201cf6:	00005797          	auipc	a5,0x5
    50201cfa:	fea78793          	addi	a5,a5,-22 # 50206ce0 <futex_buckets>
    50201cfe:	97ba                	add	a5,a5,a4
    50201d00:	853e                	mv	a0,a5
    50201d02:	ee9ff0ef          	jal	ra,50201bea <init_list_head>
    50201d06:	fec42783          	lw	a5,-20(s0)
    50201d0a:	2785                	addiw	a5,a5,1
    50201d0c:	fef42623          	sw	a5,-20(s0)
    50201d10:	fec42783          	lw	a5,-20(s0)
    50201d14:	0007871b          	sext.w	a4,a5
    50201d18:	06300793          	li	a5,99
    50201d1c:	fce7d9e3          	bge	a5,a4,50201cee <init_system_futex+0x12>
    50201d20:	b40ff0ef          	jal	ra,50201060 <enable_preempt>
    50201d24:	0001                	nop
    50201d26:	60e2                	ld	ra,24(sp)
    50201d28:	6442                	ld	s0,16(sp)
    50201d2a:	6105                	addi	sp,sp,32
    50201d2c:	8082                	ret

0000000050201d2e <futex_hash>:
    50201d2e:	1101                	addi	sp,sp,-32
    50201d30:	ec22                	sd	s0,24(sp)
    50201d32:	1000                	addi	s0,sp,32
    50201d34:	fea43423          	sd	a0,-24(s0)
    50201d38:	fe843783          	ld	a5,-24(s0)
    50201d3c:	01e7d713          	srli	a4,a5,0x1e
    50201d40:	fe843783          	ld	a5,-24(s0)
    50201d44:	8f3d                	xor	a4,a4,a5
    50201d46:	00002797          	auipc	a5,0x2
    50201d4a:	63a78793          	addi	a5,a5,1594 # 50204380 <__FUNCTION__.1220+0x10>
    50201d4e:	639c                	ld	a5,0(a5)
    50201d50:	02f707b3          	mul	a5,a4,a5
    50201d54:	fef43423          	sd	a5,-24(s0)
    50201d58:	fe843783          	ld	a5,-24(s0)
    50201d5c:	01b7d713          	srli	a4,a5,0x1b
    50201d60:	fe843783          	ld	a5,-24(s0)
    50201d64:	8f3d                	xor	a4,a4,a5
    50201d66:	00002797          	auipc	a5,0x2
    50201d6a:	62278793          	addi	a5,a5,1570 # 50204388 <__FUNCTION__.1220+0x18>
    50201d6e:	639c                	ld	a5,0(a5)
    50201d70:	02f707b3          	mul	a5,a4,a5
    50201d74:	fef43423          	sd	a5,-24(s0)
    50201d78:	fe843783          	ld	a5,-24(s0)
    50201d7c:	83fd                	srli	a5,a5,0x1f
    50201d7e:	fe843703          	ld	a4,-24(s0)
    50201d82:	8fb9                	xor	a5,a5,a4
    50201d84:	fef43423          	sd	a5,-24(s0)
    50201d88:	fe843703          	ld	a4,-24(s0)
    50201d8c:	06400793          	li	a5,100
    50201d90:	02f777b3          	remu	a5,a4,a5
    50201d94:	2781                	sext.w	a5,a5
    50201d96:	853e                	mv	a0,a5
    50201d98:	6462                	ld	s0,24(sp)
    50201d9a:	6105                	addi	sp,sp,32
    50201d9c:	8082                	ret

0000000050201d9e <get_node>:
    50201d9e:	715d                	addi	sp,sp,-80
    50201da0:	e486                	sd	ra,72(sp)
    50201da2:	e0a2                	sd	s0,64(sp)
    50201da4:	0880                	addi	s0,sp,80
    50201da6:	faa43c23          	sd	a0,-72(s0)
    50201daa:	87ae                	mv	a5,a1
    50201dac:	faf42a23          	sw	a5,-76(s0)
    50201db0:	fb843783          	ld	a5,-72(s0)
    50201db4:	853e                	mv	a0,a5
    50201db6:	f79ff0ef          	jal	ra,50201d2e <futex_hash>
    50201dba:	87aa                	mv	a5,a0
    50201dbc:	fef42223          	sw	a5,-28(s0)
    50201dc0:	fe442783          	lw	a5,-28(s0)
    50201dc4:	00479713          	slli	a4,a5,0x4
    50201dc8:	00005797          	auipc	a5,0x5
    50201dcc:	f1878793          	addi	a5,a5,-232 # 50206ce0 <futex_buckets>
    50201dd0:	97ba                	add	a5,a5,a4
    50201dd2:	fcf43c23          	sd	a5,-40(s0)
    50201dd6:	fd843783          	ld	a5,-40(s0)
    50201dda:	639c                	ld	a5,0(a5)
    50201ddc:	fef43423          	sd	a5,-24(s0)
    50201de0:	a80d                	j	50201e12 <get_node+0x74>
    50201de2:	fe843783          	ld	a5,-24(s0)
    50201de6:	fcf43423          	sd	a5,-56(s0)
    50201dea:	fc843783          	ld	a5,-56(s0)
    50201dee:	17e1                	addi	a5,a5,-8
    50201df0:	fcf43023          	sd	a5,-64(s0)
    50201df4:	fc043783          	ld	a5,-64(s0)
    50201df8:	6398                	ld	a4,0(a5)
    50201dfa:	fb843783          	ld	a5,-72(s0)
    50201dfe:	00f71563          	bne	a4,a5,50201e08 <get_node+0x6a>
    50201e02:	fc043783          	ld	a5,-64(s0)
    50201e06:	a0b5                	j	50201e72 <get_node+0xd4>
    50201e08:	fe843783          	ld	a5,-24(s0)
    50201e0c:	639c                	ld	a5,0(a5)
    50201e0e:	fef43423          	sd	a5,-24(s0)
    50201e12:	fe843703          	ld	a4,-24(s0)
    50201e16:	fd843783          	ld	a5,-40(s0)
    50201e1a:	fcf714e3          	bne	a4,a5,50201de2 <get_node+0x44>
    50201e1e:	fb442783          	lw	a5,-76(s0)
    50201e22:	2781                	sext.w	a5,a5
    50201e24:	c7b1                	beqz	a5,50201e70 <get_node+0xd2>
    50201e26:	02800513          	li	a0,40
    50201e2a:	504000ef          	jal	ra,5020232e <kmalloc>
    50201e2e:	fca43823          	sd	a0,-48(s0)
    50201e32:	fb843703          	ld	a4,-72(s0)
    50201e36:	fd043783          	ld	a5,-48(s0)
    50201e3a:	e398                	sd	a4,0(a5)
    50201e3c:	fd043783          	ld	a5,-48(s0)
    50201e40:	07e1                	addi	a5,a5,24
    50201e42:	853e                	mv	a0,a5
    50201e44:	da7ff0ef          	jal	ra,50201bea <init_list_head>
    50201e48:	fd043783          	ld	a5,-48(s0)
    50201e4c:	00878693          	addi	a3,a5,8
    50201e50:	fe442783          	lw	a5,-28(s0)
    50201e54:	00479713          	slli	a4,a5,0x4
    50201e58:	00005797          	auipc	a5,0x5
    50201e5c:	e8878793          	addi	a5,a5,-376 # 50206ce0 <futex_buckets>
    50201e60:	97ba                	add	a5,a5,a4
    50201e62:	85be                	mv	a1,a5
    50201e64:	8536                	mv	a0,a3
    50201e66:	dedff0ef          	jal	ra,50201c52 <list_add_tail>
    50201e6a:	fd043783          	ld	a5,-48(s0)
    50201e6e:	a011                	j	50201e72 <get_node+0xd4>
    50201e70:	4781                	li	a5,0
    50201e72:	853e                	mv	a0,a5
    50201e74:	60a6                	ld	ra,72(sp)
    50201e76:	6406                	ld	s0,64(sp)
    50201e78:	6161                	addi	sp,sp,80
    50201e7a:	8082                	ret

0000000050201e7c <futex_wait>:
    50201e7c:	7179                	addi	sp,sp,-48
    50201e7e:	f406                	sd	ra,40(sp)
    50201e80:	f022                	sd	s0,32(sp)
    50201e82:	1800                	addi	s0,sp,48
    50201e84:	fca43c23          	sd	a0,-40(s0)
    50201e88:	fcb43823          	sd	a1,-48(s0)
    50201e8c:	9fcff0ef          	jal	ra,50201088 <disable_preempt>
    50201e90:	4585                	li	a1,1
    50201e92:	fd843503          	ld	a0,-40(s0)
    50201e96:	f09ff0ef          	jal	ra,50201d9e <get_node>
    50201e9a:	fea43423          	sd	a0,-24(s0)
    50201e9e:	fe843783          	ld	a5,-24(s0)
    50201ea2:	ef89                	bnez	a5,50201ebc <futex_wait+0x40>
    50201ea4:	00002617          	auipc	a2,0x2
    50201ea8:	4cc60613          	addi	a2,a2,1228 # 50204370 <__FUNCTION__.1220>
    50201eac:	03500593          	li	a1,53
    50201eb0:	00002517          	auipc	a0,0x2
    50201eb4:	4a050513          	addi	a0,a0,1184 # 50204350 <deadlock_task+0x158>
    50201eb8:	df3ff0ef          	jal	ra,50201caa <_panic>
    50201ebc:	fd843783          	ld	a5,-40(s0)
    50201ec0:	639c                	ld	a5,0(a5)
    50201ec2:	fd043703          	ld	a4,-48(s0)
    50201ec6:	02f71263          	bne	a4,a5,50201eea <futex_wait+0x6e>
    50201eca:	00005797          	auipc	a5,0x5
    50201ece:	45678793          	addi	a5,a5,1110 # 50207320 <current_running>
    50201ed2:	639c                	ld	a5,0(a5)
    50201ed4:	01878713          	addi	a4,a5,24
    50201ed8:	fe843783          	ld	a5,-24(s0)
    50201edc:	07e1                	addi	a5,a5,24
    50201ede:	85be                	mv	a1,a5
    50201ee0:	853a                	mv	a0,a4
    50201ee2:	2c8000ef          	jal	ra,502021aa <do_block>
    50201ee6:	1ca000ef          	jal	ra,502020b0 <do_scheduler>
    50201eea:	976ff0ef          	jal	ra,50201060 <enable_preempt>
    50201eee:	0001                	nop
    50201ef0:	70a2                	ld	ra,40(sp)
    50201ef2:	7402                	ld	s0,32(sp)
    50201ef4:	6145                	addi	sp,sp,48
    50201ef6:	8082                	ret

0000000050201ef8 <futex_wakeup>:
    50201ef8:	7179                	addi	sp,sp,-48
    50201efa:	f406                	sd	ra,40(sp)
    50201efc:	f022                	sd	s0,32(sp)
    50201efe:	1800                	addi	s0,sp,48
    50201f00:	fca43c23          	sd	a0,-40(s0)
    50201f04:	87ae                	mv	a5,a1
    50201f06:	fcf42a23          	sw	a5,-44(s0)
    50201f0a:	97eff0ef          	jal	ra,50201088 <disable_preempt>
    50201f0e:	4581                	li	a1,0
    50201f10:	fd843503          	ld	a0,-40(s0)
    50201f14:	e8bff0ef          	jal	ra,50201d9e <get_node>
    50201f18:	fea43023          	sd	a0,-32(s0)
    50201f1c:	fe043783          	ld	a5,-32(s0)
    50201f20:	c3a9                	beqz	a5,50201f62 <futex_wakeup+0x6a>
    50201f22:	fe042623          	sw	zero,-20(s0)
    50201f26:	a025                	j	50201f4e <futex_wakeup+0x56>
    50201f28:	fe043783          	ld	a5,-32(s0)
    50201f2c:	07e1                	addi	a5,a5,24
    50201f2e:	853e                	mv	a0,a5
    50201f30:	d51ff0ef          	jal	ra,50201c80 <list_empty>
    50201f34:	87aa                	mv	a5,a0
    50201f36:	e78d                	bnez	a5,50201f60 <futex_wakeup+0x68>
    50201f38:	fe043783          	ld	a5,-32(s0)
    50201f3c:	6f9c                	ld	a5,24(a5)
    50201f3e:	853e                	mv	a0,a5
    50201f40:	2aa000ef          	jal	ra,502021ea <do_unblock>
    50201f44:	fec42783          	lw	a5,-20(s0)
    50201f48:	2785                	addiw	a5,a5,1
    50201f4a:	fef42623          	sw	a5,-20(s0)
    50201f4e:	fec42703          	lw	a4,-20(s0)
    50201f52:	fd442783          	lw	a5,-44(s0)
    50201f56:	2701                	sext.w	a4,a4
    50201f58:	2781                	sext.w	a5,a5
    50201f5a:	fcf747e3          	blt	a4,a5,50201f28 <futex_wakeup+0x30>
    50201f5e:	a011                	j	50201f62 <futex_wakeup+0x6a>
    50201f60:	0001                	nop
    50201f62:	14e000ef          	jal	ra,502020b0 <do_scheduler>
    50201f66:	8faff0ef          	jal	ra,50201060 <enable_preempt>
    50201f6a:	0001                	nop
    50201f6c:	70a2                	ld	ra,40(sp)
    50201f6e:	7402                	ld	s0,32(sp)
    50201f70:	6145                	addi	sp,sp,48
    50201f72:	8082                	ret

0000000050201f74 <_list_add>:
    50201f74:	7179                	addi	sp,sp,-48
    50201f76:	f422                	sd	s0,40(sp)
    50201f78:	1800                	addi	s0,sp,48
    50201f7a:	fea43423          	sd	a0,-24(s0)
    50201f7e:	feb43023          	sd	a1,-32(s0)
    50201f82:	fcc43c23          	sd	a2,-40(s0)
    50201f86:	fd843783          	ld	a5,-40(s0)
    50201f8a:	fe843703          	ld	a4,-24(s0)
    50201f8e:	e798                	sd	a4,8(a5)
    50201f90:	fe843783          	ld	a5,-24(s0)
    50201f94:	fd843703          	ld	a4,-40(s0)
    50201f98:	e398                	sd	a4,0(a5)
    50201f9a:	fe843783          	ld	a5,-24(s0)
    50201f9e:	fe043703          	ld	a4,-32(s0)
    50201fa2:	e798                	sd	a4,8(a5)
    50201fa4:	fe043783          	ld	a5,-32(s0)
    50201fa8:	fe843703          	ld	a4,-24(s0)
    50201fac:	e398                	sd	a4,0(a5)
    50201fae:	0001                	nop
    50201fb0:	7422                	ld	s0,40(sp)
    50201fb2:	6145                	addi	sp,sp,48
    50201fb4:	8082                	ret

0000000050201fb6 <_list_del>:
    50201fb6:	1101                	addi	sp,sp,-32
    50201fb8:	ec22                	sd	s0,24(sp)
    50201fba:	1000                	addi	s0,sp,32
    50201fbc:	fea43423          	sd	a0,-24(s0)
    50201fc0:	feb43023          	sd	a1,-32(s0)
    50201fc4:	fe043783          	ld	a5,-32(s0)
    50201fc8:	fe843703          	ld	a4,-24(s0)
    50201fcc:	e798                	sd	a4,8(a5)
    50201fce:	fe843783          	ld	a5,-24(s0)
    50201fd2:	fe043703          	ld	a4,-32(s0)
    50201fd6:	e398                	sd	a4,0(a5)
    50201fd8:	0001                	nop
    50201fda:	6462                	ld	s0,24(sp)
    50201fdc:	6105                	addi	sp,sp,32
    50201fde:	8082                	ret

0000000050201fe0 <list_del>:
    50201fe0:	1101                	addi	sp,sp,-32
    50201fe2:	ec06                	sd	ra,24(sp)
    50201fe4:	e822                	sd	s0,16(sp)
    50201fe6:	1000                	addi	s0,sp,32
    50201fe8:	fea43423          	sd	a0,-24(s0)
    50201fec:	fe843783          	ld	a5,-24(s0)
    50201ff0:	679c                	ld	a5,8(a5)
    50201ff2:	c79d                	beqz	a5,50202020 <list_del+0x40>
    50201ff4:	fe843783          	ld	a5,-24(s0)
    50201ff8:	639c                	ld	a5,0(a5)
    50201ffa:	c39d                	beqz	a5,50202020 <list_del+0x40>
    50201ffc:	fe843783          	ld	a5,-24(s0)
    50202000:	6798                	ld	a4,8(a5)
    50202002:	fe843783          	ld	a5,-24(s0)
    50202006:	639c                	ld	a5,0(a5)
    50202008:	85be                	mv	a1,a5
    5020200a:	853a                	mv	a0,a4
    5020200c:	fabff0ef          	jal	ra,50201fb6 <_list_del>
    50202010:	fe843783          	ld	a5,-24(s0)
    50202014:	0007b423          	sd	zero,8(a5)
    50202018:	fe843783          	ld	a5,-24(s0)
    5020201c:	0007b023          	sd	zero,0(a5)
    50202020:	0001                	nop
    50202022:	60e2                	ld	ra,24(sp)
    50202024:	6442                	ld	s0,16(sp)
    50202026:	6105                	addi	sp,sp,32
    50202028:	8082                	ret

000000005020202a <list_add>:
    5020202a:	1101                	addi	sp,sp,-32
    5020202c:	ec06                	sd	ra,24(sp)
    5020202e:	e822                	sd	s0,16(sp)
    50202030:	1000                	addi	s0,sp,32
    50202032:	fea43423          	sd	a0,-24(s0)
    50202036:	feb43023          	sd	a1,-32(s0)
    5020203a:	fe043783          	ld	a5,-32(s0)
    5020203e:	639c                	ld	a5,0(a5)
    50202040:	863e                	mv	a2,a5
    50202042:	fe043583          	ld	a1,-32(s0)
    50202046:	fe843503          	ld	a0,-24(s0)
    5020204a:	f2bff0ef          	jal	ra,50201f74 <_list_add>
    5020204e:	0001                	nop
    50202050:	60e2                	ld	ra,24(sp)
    50202052:	6442                	ld	s0,16(sp)
    50202054:	6105                	addi	sp,sp,32
    50202056:	8082                	ret

0000000050202058 <list_move>:
    50202058:	1101                	addi	sp,sp,-32
    5020205a:	ec06                	sd	ra,24(sp)
    5020205c:	e822                	sd	s0,16(sp)
    5020205e:	1000                	addi	s0,sp,32
    50202060:	fea43423          	sd	a0,-24(s0)
    50202064:	feb43023          	sd	a1,-32(s0)
    50202068:	fe843503          	ld	a0,-24(s0)
    5020206c:	f75ff0ef          	jal	ra,50201fe0 <list_del>
    50202070:	fe043583          	ld	a1,-32(s0)
    50202074:	fe843503          	ld	a0,-24(s0)
    50202078:	fb3ff0ef          	jal	ra,5020202a <list_add>
    5020207c:	0001                	nop
    5020207e:	60e2                	ld	ra,24(sp)
    50202080:	6442                	ld	s0,16(sp)
    50202082:	6105                	addi	sp,sp,32
    50202084:	8082                	ret

0000000050202086 <list_empty>:
    50202086:	1101                	addi	sp,sp,-32
    50202088:	ec22                	sd	s0,24(sp)
    5020208a:	1000                	addi	s0,sp,32
    5020208c:	fea43423          	sd	a0,-24(s0)
    50202090:	fe843783          	ld	a5,-24(s0)
    50202094:	639c                	ld	a5,0(a5)
    50202096:	fe843703          	ld	a4,-24(s0)
    5020209a:	40f707b3          	sub	a5,a4,a5
    5020209e:	0017b793          	seqz	a5,a5
    502020a2:	0ff7f793          	andi	a5,a5,255
    502020a6:	2781                	sext.w	a5,a5
    502020a8:	853e                	mv	a0,a5
    502020aa:	6462                	ld	s0,24(sp)
    502020ac:	6105                	addi	sp,sp,32
    502020ae:	8082                	ret

00000000502020b0 <do_scheduler>:
    502020b0:	1101                	addi	sp,sp,-32
    502020b2:	ec06                	sd	ra,24(sp)
    502020b4:	e822                	sd	s0,16(sp)
    502020b6:	1000                	addi	s0,sp,32
    502020b8:	00002517          	auipc	a0,0x2
    502020bc:	6b050513          	addi	a0,a0,1712 # 50204768 <ready_queue>
    502020c0:	fc7ff0ef          	jal	ra,50202086 <list_empty>
    502020c4:	87aa                	mv	a5,a0
    502020c6:	ebf9                	bnez	a5,5020219c <do_scheduler+0xec>
    502020c8:	00005797          	auipc	a5,0x5
    502020cc:	25878793          	addi	a5,a5,600 # 50207320 <current_running>
    502020d0:	639c                	ld	a5,0(a5)
    502020d2:	fef43423          	sd	a5,-24(s0)
    502020d6:	00002797          	auipc	a5,0x2
    502020da:	69278793          	addi	a5,a5,1682 # 50204768 <ready_queue>
    502020de:	679c                	ld	a5,8(a5)
    502020e0:	fef43023          	sd	a5,-32(s0)
    502020e4:	fe043783          	ld	a5,-32(s0)
    502020e8:	fe878713          	addi	a4,a5,-24
    502020ec:	00005797          	auipc	a5,0x5
    502020f0:	23478793          	addi	a5,a5,564 # 50207320 <current_running>
    502020f4:	e398                	sd	a4,0(a5)
    502020f6:	00002797          	auipc	a5,0x2
    502020fa:	67278793          	addi	a5,a5,1650 # 50204768 <ready_queue>
    502020fe:	679c                	ld	a5,8(a5)
    50202100:	00002597          	auipc	a1,0x2
    50202104:	66858593          	addi	a1,a1,1640 # 50204768 <ready_queue>
    50202108:	853e                	mv	a0,a5
    5020210a:	f4fff0ef          	jal	ra,50202058 <list_move>
    5020210e:	00005797          	auipc	a5,0x5
    50202112:	21278793          	addi	a5,a5,530 # 50207320 <current_running>
    50202116:	639c                	ld	a5,0(a5)
    50202118:	5798                	lw	a4,40(a5)
    5020211a:	00003797          	auipc	a5,0x3
    5020211e:	b4e78793          	addi	a5,a5,-1202 # 50204c68 <process_id>
    50202122:	c398                	sw	a4,0(a5)
    50202124:	00005797          	auipc	a5,0x5
    50202128:	1fc78793          	addi	a5,a5,508 # 50207320 <current_running>
    5020212c:	639c                	ld	a5,0(a5)
    5020212e:	4705                	li	a4,1
    50202130:	db98                	sw	a4,48(a5)
    50202132:	fe843783          	ld	a5,-24(s0)
    50202136:	4709                	li	a4,2
    50202138:	db98                	sw	a4,48(a5)
    5020213a:	00005797          	auipc	a5,0x5
    5020213e:	1e678793          	addi	a5,a5,486 # 50207320 <current_running>
    50202142:	639c                	ld	a5,0(a5)
    50202144:	5bd8                	lw	a4,52(a5)
    50202146:	00005797          	auipc	a5,0x5
    5020214a:	1da78793          	addi	a5,a5,474 # 50207320 <current_running>
    5020214e:	639c                	ld	a5,0(a5)
    50202150:	5f9c                	lw	a5,56(a5)
    50202152:	85be                	mv	a1,a5
    50202154:	853a                	mv	a0,a4
    50202156:	c54ff0ef          	jal	ra,502015aa <vt100_move_cursor>
    5020215a:	00005797          	auipc	a5,0x5
    5020215e:	1c678793          	addi	a5,a5,454 # 50207320 <current_running>
    50202162:	639c                	ld	a5,0(a5)
    50202164:	5bd8                	lw	a4,52(a5)
    50202166:	00005797          	auipc	a5,0x5
    5020216a:	b7278793          	addi	a5,a5,-1166 # 50206cd8 <screen_cursor_x>
    5020216e:	c398                	sw	a4,0(a5)
    50202170:	00005797          	auipc	a5,0x5
    50202174:	1b078793          	addi	a5,a5,432 # 50207320 <current_running>
    50202178:	639c                	ld	a5,0(a5)
    5020217a:	5f98                	lw	a4,56(a5)
    5020217c:	00005797          	auipc	a5,0x5
    50202180:	b6078793          	addi	a5,a5,-1184 # 50206cdc <screen_cursor_y>
    50202184:	c398                	sw	a4,0(a5)
    50202186:	00005797          	auipc	a5,0x5
    5020218a:	19a78793          	addi	a5,a5,410 # 50207320 <current_running>
    5020218e:	639c                	ld	a5,0(a5)
    50202190:	85be                	mv	a1,a5
    50202192:	fe843503          	ld	a0,-24(s0)
    50202196:	f1bfe0ef          	jal	ra,502010b0 <switch_to>
    5020219a:	a019                	j	502021a0 <do_scheduler+0xf0>
    5020219c:	10500073          	wfi
    502021a0:	0001                	nop
    502021a2:	60e2                	ld	ra,24(sp)
    502021a4:	6442                	ld	s0,16(sp)
    502021a6:	6105                	addi	sp,sp,32
    502021a8:	8082                	ret

00000000502021aa <do_block>:
    502021aa:	7179                	addi	sp,sp,-48
    502021ac:	f406                	sd	ra,40(sp)
    502021ae:	f022                	sd	s0,32(sp)
    502021b0:	1800                	addi	s0,sp,48
    502021b2:	fca43c23          	sd	a0,-40(s0)
    502021b6:	fcb43823          	sd	a1,-48(s0)
    502021ba:	fd843503          	ld	a0,-40(s0)
    502021be:	e23ff0ef          	jal	ra,50201fe0 <list_del>
    502021c2:	fd043583          	ld	a1,-48(s0)
    502021c6:	fd843503          	ld	a0,-40(s0)
    502021ca:	e61ff0ef          	jal	ra,5020202a <list_add>
    502021ce:	fd843783          	ld	a5,-40(s0)
    502021d2:	fef43423          	sd	a5,-24(s0)
    502021d6:	fe843783          	ld	a5,-24(s0)
    502021da:	17a1                	addi	a5,a5,-24
    502021dc:	0207a823          	sw	zero,48(a5)
    502021e0:	0001                	nop
    502021e2:	70a2                	ld	ra,40(sp)
    502021e4:	7402                	ld	s0,32(sp)
    502021e6:	6145                	addi	sp,sp,48
    502021e8:	8082                	ret

00000000502021ea <do_unblock>:
    502021ea:	7179                	addi	sp,sp,-48
    502021ec:	f406                	sd	ra,40(sp)
    502021ee:	f022                	sd	s0,32(sp)
    502021f0:	1800                	addi	s0,sp,48
    502021f2:	fca43c23          	sd	a0,-40(s0)
    502021f6:	fd843503          	ld	a0,-40(s0)
    502021fa:	de7ff0ef          	jal	ra,50201fe0 <list_del>
    502021fe:	00002597          	auipc	a1,0x2
    50202202:	56a58593          	addi	a1,a1,1386 # 50204768 <ready_queue>
    50202206:	fd843503          	ld	a0,-40(s0)
    5020220a:	e21ff0ef          	jal	ra,5020202a <list_add>
    5020220e:	fd843783          	ld	a5,-40(s0)
    50202212:	fef43423          	sd	a5,-24(s0)
    50202216:	fe843783          	ld	a5,-24(s0)
    5020221a:	17a1                	addi	a5,a5,-24
    5020221c:	4709                	li	a4,2
    5020221e:	db98                	sw	a4,48(a5)
    50202220:	0001                	nop
    50202222:	70a2                	ld	ra,40(sp)
    50202224:	7402                	ld	s0,32(sp)
    50202226:	6145                	addi	sp,sp,48
    50202228:	8082                	ret

000000005020222a <timer_create>:
    5020222a:	7179                	addi	sp,sp,-48
    5020222c:	f422                	sd	s0,40(sp)
    5020222e:	1800                	addi	s0,sp,48
    50202230:	fea43423          	sd	a0,-24(s0)
    50202234:	feb43023          	sd	a1,-32(s0)
    50202238:	fcc43c23          	sd	a2,-40(s0)
    5020223c:	0001                	nop
    5020223e:	7422                	ld	s0,40(sp)
    50202240:	6145                	addi	sp,sp,48
    50202242:	8082                	ret

0000000050202244 <timer_check>:
    50202244:	1141                	addi	sp,sp,-16
    50202246:	e422                	sd	s0,8(sp)
    50202248:	0800                	addi	s0,sp,16
    5020224a:	0001                	nop
    5020224c:	6422                	ld	s0,8(sp)
    5020224e:	0141                	addi	sp,sp,16
    50202250:	8082                	ret

0000000050202252 <get_ticks>:
    50202252:	1141                	addi	sp,sp,-16
    50202254:	e422                	sd	s0,8(sp)
    50202256:	0800                	addi	s0,sp,16
    50202258:	c0102773          	rdtime	a4
    5020225c:	83018793          	addi	a5,gp,-2000 # 50204c90 <time_elapsed>
    50202260:	e398                	sd	a4,0(a5)
    50202262:	83018793          	addi	a5,gp,-2000 # 50204c90 <time_elapsed>
    50202266:	639c                	ld	a5,0(a5)
    50202268:	853e                	mv	a0,a5
    5020226a:	6422                	ld	s0,8(sp)
    5020226c:	0141                	addi	sp,sp,16
    5020226e:	8082                	ret

0000000050202270 <get_timer>:
    50202270:	1141                	addi	sp,sp,-16
    50202272:	e406                	sd	ra,8(sp)
    50202274:	e022                	sd	s0,0(sp)
    50202276:	0800                	addi	s0,sp,16
    50202278:	fdbff0ef          	jal	ra,50202252 <get_ticks>
    5020227c:	872a                	mv	a4,a0
    5020227e:	83818793          	addi	a5,gp,-1992 # 50204c98 <time_base>
    50202282:	439c                	lw	a5,0(a5)
    50202284:	1782                	slli	a5,a5,0x20
    50202286:	9381                	srli	a5,a5,0x20
    50202288:	02f757b3          	divu	a5,a4,a5
    5020228c:	853e                	mv	a0,a5
    5020228e:	60a2                	ld	ra,8(sp)
    50202290:	6402                	ld	s0,0(sp)
    50202292:	0141                	addi	sp,sp,16
    50202294:	8082                	ret

0000000050202296 <get_time_base>:
    50202296:	1141                	addi	sp,sp,-16
    50202298:	e422                	sd	s0,8(sp)
    5020229a:	0800                	addi	s0,sp,16
    5020229c:	83818793          	addi	a5,gp,-1992 # 50204c98 <time_base>
    502022a0:	439c                	lw	a5,0(a5)
    502022a2:	1782                	slli	a5,a5,0x20
    502022a4:	9381                	srli	a5,a5,0x20
    502022a6:	853e                	mv	a0,a5
    502022a8:	6422                	ld	s0,8(sp)
    502022aa:	0141                	addi	sp,sp,16
    502022ac:	8082                	ret

00000000502022ae <latency>:
    502022ae:	7179                	addi	sp,sp,-48
    502022b0:	f406                	sd	ra,40(sp)
    502022b2:	f022                	sd	s0,32(sp)
    502022b4:	1800                	addi	s0,sp,48
    502022b6:	fca43c23          	sd	a0,-40(s0)
    502022ba:	fb7ff0ef          	jal	ra,50202270 <get_timer>
    502022be:	fea43423          	sd	a0,-24(s0)
    502022c2:	0001                	nop
    502022c4:	fadff0ef          	jal	ra,50202270 <get_timer>
    502022c8:	872a                	mv	a4,a0
    502022ca:	fe843783          	ld	a5,-24(s0)
    502022ce:	40f707b3          	sub	a5,a4,a5
    502022d2:	fd843703          	ld	a4,-40(s0)
    502022d6:	fee7e7e3          	bltu	a5,a4,502022c4 <latency+0x16>
    502022da:	0001                	nop
    502022dc:	70a2                	ld	ra,40(sp)
    502022de:	7402                	ld	s0,32(sp)
    502022e0:	6145                	addi	sp,sp,48
    502022e2:	8082                	ret

00000000502022e4 <allocPage>:
    502022e4:	7179                	addi	sp,sp,-48
    502022e6:	f422                	sd	s0,40(sp)
    502022e8:	1800                	addi	s0,sp,48
    502022ea:	87aa                	mv	a5,a0
    502022ec:	fcf42e23          	sw	a5,-36(s0)
    502022f0:	00003797          	auipc	a5,0x3
    502022f4:	98078793          	addi	a5,a5,-1664 # 50204c70 <memCurr>
    502022f8:	6398                	ld	a4,0(a5)
    502022fa:	6785                	lui	a5,0x1
    502022fc:	17fd                	addi	a5,a5,-1
    502022fe:	973e                	add	a4,a4,a5
    50202300:	77fd                	lui	a5,0xfffff
    50202302:	8ff9                	and	a5,a5,a4
    50202304:	fdc42703          	lw	a4,-36(s0)
    50202308:	00c7171b          	slliw	a4,a4,0xc
    5020230c:	2701                	sext.w	a4,a4
    5020230e:	97ba                	add	a5,a5,a4
    50202310:	fef43423          	sd	a5,-24(s0)
    50202314:	00003797          	auipc	a5,0x3
    50202318:	95c78793          	addi	a5,a5,-1700 # 50204c70 <memCurr>
    5020231c:	fe843703          	ld	a4,-24(s0)
    50202320:	e398                	sd	a4,0(a5)
    50202322:	fe843783          	ld	a5,-24(s0)
    50202326:	853e                	mv	a0,a5
    50202328:	7422                	ld	s0,40(sp)
    5020232a:	6145                	addi	sp,sp,48
    5020232c:	8082                	ret

000000005020232e <kmalloc>:
    5020232e:	7179                	addi	sp,sp,-48
    50202330:	f422                	sd	s0,40(sp)
    50202332:	1800                	addi	s0,sp,48
    50202334:	fca43c23          	sd	a0,-40(s0)
    50202338:	00003797          	auipc	a5,0x3
    5020233c:	93878793          	addi	a5,a5,-1736 # 50204c70 <memCurr>
    50202340:	639c                	ld	a5,0(a5)
    50202342:	078d                	addi	a5,a5,3
    50202344:	9bf1                	andi	a5,a5,-4
    50202346:	fef43423          	sd	a5,-24(s0)
    5020234a:	fe843703          	ld	a4,-24(s0)
    5020234e:	fd843783          	ld	a5,-40(s0)
    50202352:	973e                	add	a4,a4,a5
    50202354:	00003797          	auipc	a5,0x3
    50202358:	91c78793          	addi	a5,a5,-1764 # 50204c70 <memCurr>
    5020235c:	e398                	sd	a4,0(a5)
    5020235e:	fe843783          	ld	a5,-24(s0)
    50202362:	853e                	mv	a0,a5
    50202364:	7422                	ld	s0,40(sp)
    50202366:	6145                	addi	sp,sp,48
    50202368:	8082                	ret

000000005020236a <handle_syscall>:
    5020236a:	7179                	addi	sp,sp,-48
    5020236c:	f406                	sd	ra,40(sp)
    5020236e:	f022                	sd	s0,32(sp)
    50202370:	1800                	addi	s0,sp,48
    50202372:	fea43423          	sd	a0,-24(s0)
    50202376:	feb43023          	sd	a1,-32(s0)
    5020237a:	fcc43c23          	sd	a2,-40(s0)
    5020237e:	fe843783          	ld	a5,-24(s0)
    50202382:	1087b783          	ld	a5,264(a5)
    50202386:	00478713          	addi	a4,a5,4
    5020238a:	fe843783          	ld	a5,-24(s0)
    5020238e:	10e7b423          	sd	a4,264(a5)
    50202392:	fe843783          	ld	a5,-24(s0)
    50202396:	67dc                	ld	a5,136(a5)
    50202398:	00005717          	auipc	a4,0x5
    5020239c:	39070713          	addi	a4,a4,912 # 50207728 <syscall>
    502023a0:	078e                	slli	a5,a5,0x3
    502023a2:	97ba                	add	a5,a5,a4
    502023a4:	0007b803          	ld	a6,0(a5)
    502023a8:	fe843783          	ld	a5,-24(s0)
    502023ac:	6bb8                	ld	a4,80(a5)
    502023ae:	fe843783          	ld	a5,-24(s0)
    502023b2:	6fb4                	ld	a3,88(a5)
    502023b4:	fe843783          	ld	a5,-24(s0)
    502023b8:	73bc                	ld	a5,96(a5)
    502023ba:	863e                	mv	a2,a5
    502023bc:	85b6                	mv	a1,a3
    502023be:	853a                	mv	a0,a4
    502023c0:	9802                	jalr	a6
    502023c2:	87aa                	mv	a5,a0
    502023c4:	873e                	mv	a4,a5
    502023c6:	fe843783          	ld	a5,-24(s0)
    502023ca:	ebb8                	sd	a4,80(a5)
    502023cc:	0001                	nop
    502023ce:	70a2                	ld	ra,40(sp)
    502023d0:	7402                	ld	s0,32(sp)
    502023d2:	6145                	addi	sp,sp,48
    502023d4:	8082                	ret

00000000502023d6 <kstrlen>:
    502023d6:	7179                	addi	sp,sp,-48
    502023d8:	f422                	sd	s0,40(sp)
    502023da:	1800                	addi	s0,sp,48
    502023dc:	fca43c23          	sd	a0,-40(s0)
    502023e0:	fe042623          	sw	zero,-20(s0)
    502023e4:	a031                	j	502023f0 <kstrlen+0x1a>
    502023e6:	fec42783          	lw	a5,-20(s0)
    502023ea:	2785                	addiw	a5,a5,1
    502023ec:	fef42623          	sw	a5,-20(s0)
    502023f0:	fec42783          	lw	a5,-20(s0)
    502023f4:	fd843703          	ld	a4,-40(s0)
    502023f8:	97ba                	add	a5,a5,a4
    502023fa:	0007c783          	lbu	a5,0(a5)
    502023fe:	f7e5                	bnez	a5,502023e6 <kstrlen+0x10>
    50202400:	fec42783          	lw	a5,-20(s0)
    50202404:	853e                	mv	a0,a5
    50202406:	7422                	ld	s0,40(sp)
    50202408:	6145                	addi	sp,sp,48
    5020240a:	8082                	ret

000000005020240c <kmemcpy>:
    5020240c:	7179                	addi	sp,sp,-48
    5020240e:	f422                	sd	s0,40(sp)
    50202410:	1800                	addi	s0,sp,48
    50202412:	fea43423          	sd	a0,-24(s0)
    50202416:	feb43023          	sd	a1,-32(s0)
    5020241a:	87b2                	mv	a5,a2
    5020241c:	fcf42e23          	sw	a5,-36(s0)
    50202420:	a035                	j	5020244c <kmemcpy+0x40>
    50202422:	fe043703          	ld	a4,-32(s0)
    50202426:	00170793          	addi	a5,a4,1
    5020242a:	fef43023          	sd	a5,-32(s0)
    5020242e:	fe843783          	ld	a5,-24(s0)
    50202432:	00178693          	addi	a3,a5,1
    50202436:	fed43423          	sd	a3,-24(s0)
    5020243a:	00074703          	lbu	a4,0(a4)
    5020243e:	00e78023          	sb	a4,0(a5)
    50202442:	fdc42783          	lw	a5,-36(s0)
    50202446:	37fd                	addiw	a5,a5,-1
    50202448:	fcf42e23          	sw	a5,-36(s0)
    5020244c:	fdc42783          	lw	a5,-36(s0)
    50202450:	2781                	sext.w	a5,a5
    50202452:	fbe1                	bnez	a5,50202422 <kmemcpy+0x16>
    50202454:	0001                	nop
    50202456:	0001                	nop
    50202458:	7422                	ld	s0,40(sp)
    5020245a:	6145                	addi	sp,sp,48
    5020245c:	8082                	ret

000000005020245e <kmemset>:
    5020245e:	7179                	addi	sp,sp,-48
    50202460:	f422                	sd	s0,40(sp)
    50202462:	1800                	addi	s0,sp,48
    50202464:	fca43c23          	sd	a0,-40(s0)
    50202468:	87ae                	mv	a5,a1
    5020246a:	8732                	mv	a4,a2
    5020246c:	fcf40ba3          	sb	a5,-41(s0)
    50202470:	87ba                	mv	a5,a4
    50202472:	fcf42823          	sw	a5,-48(s0)
    50202476:	fd843783          	ld	a5,-40(s0)
    5020247a:	fef43423          	sd	a5,-24(s0)
    5020247e:	a005                	j	5020249e <kmemset+0x40>
    50202480:	fe843783          	ld	a5,-24(s0)
    50202484:	00178713          	addi	a4,a5,1
    50202488:	fee43423          	sd	a4,-24(s0)
    5020248c:	fd744703          	lbu	a4,-41(s0)
    50202490:	00e78023          	sb	a4,0(a5)
    50202494:	fd042783          	lw	a5,-48(s0)
    50202498:	37fd                	addiw	a5,a5,-1
    5020249a:	fcf42823          	sw	a5,-48(s0)
    5020249e:	fd042783          	lw	a5,-48(s0)
    502024a2:	2781                	sext.w	a5,a5
    502024a4:	fff1                	bnez	a5,50202480 <kmemset+0x22>
    502024a6:	0001                	nop
    502024a8:	0001                	nop
    502024aa:	7422                	ld	s0,40(sp)
    502024ac:	6145                	addi	sp,sp,48
    502024ae:	8082                	ret

00000000502024b0 <kbzero>:
    502024b0:	1101                	addi	sp,sp,-32
    502024b2:	ec06                	sd	ra,24(sp)
    502024b4:	e822                	sd	s0,16(sp)
    502024b6:	1000                	addi	s0,sp,32
    502024b8:	fea43423          	sd	a0,-24(s0)
    502024bc:	87ae                	mv	a5,a1
    502024be:	fef42223          	sw	a5,-28(s0)
    502024c2:	fe442783          	lw	a5,-28(s0)
    502024c6:	863e                	mv	a2,a5
    502024c8:	4581                	li	a1,0
    502024ca:	fe843503          	ld	a0,-24(s0)
    502024ce:	f91ff0ef          	jal	ra,5020245e <kmemset>
    502024d2:	0001                	nop
    502024d4:	60e2                	ld	ra,24(sp)
    502024d6:	6442                	ld	s0,16(sp)
    502024d8:	6105                	addi	sp,sp,32
    502024da:	8082                	ret

00000000502024dc <kstrcmp>:
    502024dc:	1101                	addi	sp,sp,-32
    502024de:	ec22                	sd	s0,24(sp)
    502024e0:	1000                	addi	s0,sp,32
    502024e2:	fea43423          	sd	a0,-24(s0)
    502024e6:	feb43023          	sd	a1,-32(s0)
    502024ea:	a0a1                	j	50202532 <kstrcmp+0x56>
    502024ec:	fe843783          	ld	a5,-24(s0)
    502024f0:	0007c703          	lbu	a4,0(a5)
    502024f4:	fe043783          	ld	a5,-32(s0)
    502024f8:	0007c783          	lbu	a5,0(a5)
    502024fc:	02f70163          	beq	a4,a5,5020251e <kstrcmp+0x42>
    50202500:	fe843783          	ld	a5,-24(s0)
    50202504:	0007c783          	lbu	a5,0(a5)
    50202508:	0007871b          	sext.w	a4,a5
    5020250c:	fe043783          	ld	a5,-32(s0)
    50202510:	0007c783          	lbu	a5,0(a5)
    50202514:	2781                	sext.w	a5,a5
    50202516:	40f707bb          	subw	a5,a4,a5
    5020251a:	2781                	sext.w	a5,a5
    5020251c:	a099                	j	50202562 <kstrcmp+0x86>
    5020251e:	fe843783          	ld	a5,-24(s0)
    50202522:	0785                	addi	a5,a5,1
    50202524:	fef43423          	sd	a5,-24(s0)
    50202528:	fe043783          	ld	a5,-32(s0)
    5020252c:	0785                	addi	a5,a5,1
    5020252e:	fef43023          	sd	a5,-32(s0)
    50202532:	fe843783          	ld	a5,-24(s0)
    50202536:	0007c783          	lbu	a5,0(a5)
    5020253a:	c791                	beqz	a5,50202546 <kstrcmp+0x6a>
    5020253c:	fe043783          	ld	a5,-32(s0)
    50202540:	0007c783          	lbu	a5,0(a5)
    50202544:	f7c5                	bnez	a5,502024ec <kstrcmp+0x10>
    50202546:	fe843783          	ld	a5,-24(s0)
    5020254a:	0007c783          	lbu	a5,0(a5)
    5020254e:	0007871b          	sext.w	a4,a5
    50202552:	fe043783          	ld	a5,-32(s0)
    50202556:	0007c783          	lbu	a5,0(a5)
    5020255a:	2781                	sext.w	a5,a5
    5020255c:	40f707bb          	subw	a5,a4,a5
    50202560:	2781                	sext.w	a5,a5
    50202562:	853e                	mv	a0,a5
    50202564:	6462                	ld	s0,24(sp)
    50202566:	6105                	addi	sp,sp,32
    50202568:	8082                	ret

000000005020256a <kstrcpy>:
    5020256a:	7179                	addi	sp,sp,-48
    5020256c:	f422                	sd	s0,40(sp)
    5020256e:	1800                	addi	s0,sp,48
    50202570:	fca43c23          	sd	a0,-40(s0)
    50202574:	fcb43823          	sd	a1,-48(s0)
    50202578:	fd843783          	ld	a5,-40(s0)
    5020257c:	fef43423          	sd	a5,-24(s0)
    50202580:	a00d                	j	502025a2 <kstrcpy+0x38>
    50202582:	fd043703          	ld	a4,-48(s0)
    50202586:	00170793          	addi	a5,a4,1
    5020258a:	fcf43823          	sd	a5,-48(s0)
    5020258e:	fd843783          	ld	a5,-40(s0)
    50202592:	00178693          	addi	a3,a5,1
    50202596:	fcd43c23          	sd	a3,-40(s0)
    5020259a:	00074703          	lbu	a4,0(a4)
    5020259e:	00e78023          	sb	a4,0(a5)
    502025a2:	fd043783          	ld	a5,-48(s0)
    502025a6:	0007c783          	lbu	a5,0(a5)
    502025aa:	ffe1                	bnez	a5,50202582 <kstrcpy+0x18>
    502025ac:	fd843783          	ld	a5,-40(s0)
    502025b0:	00078023          	sb	zero,0(a5)
    502025b4:	fe843783          	ld	a5,-24(s0)
    502025b8:	853e                	mv	a0,a5
    502025ba:	7422                	ld	s0,40(sp)
    502025bc:	6145                	addi	sp,sp,48
    502025be:	8082                	ret

00000000502025c0 <kstrcat>:
    502025c0:	7179                	addi	sp,sp,-48
    502025c2:	f422                	sd	s0,40(sp)
    502025c4:	1800                	addi	s0,sp,48
    502025c6:	fca43c23          	sd	a0,-40(s0)
    502025ca:	fcb43823          	sd	a1,-48(s0)
    502025ce:	fd843783          	ld	a5,-40(s0)
    502025d2:	fef43423          	sd	a5,-24(s0)
    502025d6:	a031                	j	502025e2 <kstrcat+0x22>
    502025d8:	fd843783          	ld	a5,-40(s0)
    502025dc:	0785                	addi	a5,a5,1
    502025de:	fcf43c23          	sd	a5,-40(s0)
    502025e2:	fd843783          	ld	a5,-40(s0)
    502025e6:	0007c783          	lbu	a5,0(a5)
    502025ea:	f7fd                	bnez	a5,502025d8 <kstrcat+0x18>
    502025ec:	a00d                	j	5020260e <kstrcat+0x4e>
    502025ee:	fd043703          	ld	a4,-48(s0)
    502025f2:	00170793          	addi	a5,a4,1
    502025f6:	fcf43823          	sd	a5,-48(s0)
    502025fa:	fd843783          	ld	a5,-40(s0)
    502025fe:	00178693          	addi	a3,a5,1
    50202602:	fcd43c23          	sd	a3,-40(s0)
    50202606:	00074703          	lbu	a4,0(a4)
    5020260a:	00e78023          	sb	a4,0(a5)
    5020260e:	fd043783          	ld	a5,-48(s0)
    50202612:	0007c783          	lbu	a5,0(a5)
    50202616:	ffe1                	bnez	a5,502025ee <kstrcat+0x2e>
    50202618:	fd843783          	ld	a5,-40(s0)
    5020261c:	00078023          	sb	zero,0(a5)
    50202620:	fe843783          	ld	a5,-24(s0)
    50202624:	853e                	mv	a0,a5
    50202626:	7422                	ld	s0,40(sp)
    50202628:	6145                	addi	sp,sp,48
    5020262a:	8082                	ret

000000005020262c <mini_strlen>:
    5020262c:	7179                	addi	sp,sp,-48
    5020262e:	f422                	sd	s0,40(sp)
    50202630:	1800                	addi	s0,sp,48
    50202632:	fca43c23          	sd	a0,-40(s0)
    50202636:	fe042623          	sw	zero,-20(s0)
    5020263a:	a031                	j	50202646 <mini_strlen+0x1a>
    5020263c:	fec42783          	lw	a5,-20(s0)
    50202640:	2785                	addiw	a5,a5,1
    50202642:	fef42623          	sw	a5,-20(s0)
    50202646:	fec46783          	lwu	a5,-20(s0)
    5020264a:	fd843703          	ld	a4,-40(s0)
    5020264e:	97ba                	add	a5,a5,a4
    50202650:	0007c783          	lbu	a5,0(a5)
    50202654:	f7e5                	bnez	a5,5020263c <mini_strlen+0x10>
    50202656:	fec42783          	lw	a5,-20(s0)
    5020265a:	853e                	mv	a0,a5
    5020265c:	7422                	ld	s0,40(sp)
    5020265e:	6145                	addi	sp,sp,48
    50202660:	8082                	ret

0000000050202662 <mini_itoa>:
    50202662:	715d                	addi	sp,sp,-80
    50202664:	e4a2                	sd	s0,72(sp)
    50202666:	0880                	addi	s0,sp,80
    50202668:	fca43423          	sd	a0,-56(s0)
    5020266c:	fae43823          	sd	a4,-80(s0)
    50202670:	873e                	mv	a4,a5
    50202672:	87ae                	mv	a5,a1
    50202674:	fcf42223          	sw	a5,-60(s0)
    50202678:	87b2                	mv	a5,a2
    5020267a:	fcf42023          	sw	a5,-64(s0)
    5020267e:	87b6                	mv	a5,a3
    50202680:	faf42e23          	sw	a5,-68(s0)
    50202684:	87ba                	mv	a5,a4
    50202686:	faf42c23          	sw	a5,-72(s0)
    5020268a:	fb043783          	ld	a5,-80(s0)
    5020268e:	fef43423          	sd	a5,-24(s0)
    50202692:	fe042223          	sw	zero,-28(s0)
    50202696:	fc442783          	lw	a5,-60(s0)
    5020269a:	0007871b          	sext.w	a4,a5
    5020269e:	47c1                	li	a5,16
    502026a0:	00e7f463          	bgeu	a5,a4,502026a8 <mini_itoa+0x46>
    502026a4:	4781                	li	a5,0
    502026a6:	a255                	j	5020284a <mini_itoa+0x1e8>
    502026a8:	fc843783          	ld	a5,-56(s0)
    502026ac:	0007df63          	bgez	a5,502026ca <mini_itoa+0x68>
    502026b0:	fbc42783          	lw	a5,-68(s0)
    502026b4:	2781                	sext.w	a5,a5
    502026b6:	eb91                	bnez	a5,502026ca <mini_itoa+0x68>
    502026b8:	4785                	li	a5,1
    502026ba:	fef42223          	sw	a5,-28(s0)
    502026be:	fc843783          	ld	a5,-56(s0)
    502026c2:	40f007b3          	neg	a5,a5
    502026c6:	fcf43423          	sd	a5,-56(s0)
    502026ca:	fc446783          	lwu	a5,-60(s0)
    502026ce:	fc843703          	ld	a4,-56(s0)
    502026d2:	02f767b3          	rem	a5,a4,a5
    502026d6:	fcf42e23          	sw	a5,-36(s0)
    502026da:	fdc42783          	lw	a5,-36(s0)
    502026de:	0007871b          	sext.w	a4,a5
    502026e2:	47a5                	li	a5,9
    502026e4:	00e7cb63          	blt	a5,a4,502026fa <mini_itoa+0x98>
    502026e8:	fdc42783          	lw	a5,-36(s0)
    502026ec:	0ff7f793          	andi	a5,a5,255
    502026f0:	0307879b          	addiw	a5,a5,48
    502026f4:	0ff7f713          	andi	a4,a5,255
    502026f8:	a025                	j	50202720 <mini_itoa+0xbe>
    502026fa:	fc042783          	lw	a5,-64(s0)
    502026fe:	2781                	sext.w	a5,a5
    50202700:	c781                	beqz	a5,50202708 <mini_itoa+0xa6>
    50202702:	04100793          	li	a5,65
    50202706:	a019                	j	5020270c <mini_itoa+0xaa>
    50202708:	06100793          	li	a5,97
    5020270c:	fdc42703          	lw	a4,-36(s0)
    50202710:	0ff77713          	andi	a4,a4,255
    50202714:	9fb9                	addw	a5,a5,a4
    50202716:	0ff7f793          	andi	a5,a5,255
    5020271a:	37d9                	addiw	a5,a5,-10
    5020271c:	0ff7f713          	andi	a4,a5,255
    50202720:	fe843783          	ld	a5,-24(s0)
    50202724:	00178693          	addi	a3,a5,1
    50202728:	fed43423          	sd	a3,-24(s0)
    5020272c:	00e78023          	sb	a4,0(a5)
    50202730:	fc446783          	lwu	a5,-60(s0)
    50202734:	fc843703          	ld	a4,-56(s0)
    50202738:	02f747b3          	div	a5,a4,a5
    5020273c:	fcf43423          	sd	a5,-56(s0)
    50202740:	fc843783          	ld	a5,-56(s0)
    50202744:	f8f043e3          	bgtz	a5,502026ca <mini_itoa+0x68>
    50202748:	fe843703          	ld	a4,-24(s0)
    5020274c:	fb043783          	ld	a5,-80(s0)
    50202750:	40f707b3          	sub	a5,a4,a5
    50202754:	fef42023          	sw	a5,-32(s0)
    50202758:	a005                	j	50202778 <mini_itoa+0x116>
    5020275a:	fe843783          	ld	a5,-24(s0)
    5020275e:	00178713          	addi	a4,a5,1
    50202762:	fee43423          	sd	a4,-24(s0)
    50202766:	03000713          	li	a4,48
    5020276a:	00e78023          	sb	a4,0(a5)
    5020276e:	fe042783          	lw	a5,-32(s0)
    50202772:	2785                	addiw	a5,a5,1
    50202774:	fef42023          	sw	a5,-32(s0)
    50202778:	fe042703          	lw	a4,-32(s0)
    5020277c:	fb842783          	lw	a5,-72(s0)
    50202780:	2701                	sext.w	a4,a4
    50202782:	2781                	sext.w	a5,a5
    50202784:	fcf76be3          	bltu	a4,a5,5020275a <mini_itoa+0xf8>
    50202788:	fe442783          	lw	a5,-28(s0)
    5020278c:	2781                	sext.w	a5,a5
    5020278e:	cb99                	beqz	a5,502027a4 <mini_itoa+0x142>
    50202790:	fe843783          	ld	a5,-24(s0)
    50202794:	00178713          	addi	a4,a5,1
    50202798:	fee43423          	sd	a4,-24(s0)
    5020279c:	02d00713          	li	a4,45
    502027a0:	00e78023          	sb	a4,0(a5)
    502027a4:	fe843783          	ld	a5,-24(s0)
    502027a8:	00078023          	sb	zero,0(a5)
    502027ac:	fe843703          	ld	a4,-24(s0)
    502027b0:	fb043783          	ld	a5,-80(s0)
    502027b4:	40f707b3          	sub	a5,a4,a5
    502027b8:	fcf42c23          	sw	a5,-40(s0)
    502027bc:	fe042023          	sw	zero,-32(s0)
    502027c0:	a885                	j	50202830 <mini_itoa+0x1ce>
    502027c2:	fe046783          	lwu	a5,-32(s0)
    502027c6:	fb043703          	ld	a4,-80(s0)
    502027ca:	97ba                	add	a5,a5,a4
    502027cc:	0007c783          	lbu	a5,0(a5)
    502027d0:	fcf40ba3          	sb	a5,-41(s0)
    502027d4:	fd842703          	lw	a4,-40(s0)
    502027d8:	fe042783          	lw	a5,-32(s0)
    502027dc:	40f707bb          	subw	a5,a4,a5
    502027e0:	2781                	sext.w	a5,a5
    502027e2:	37fd                	addiw	a5,a5,-1
    502027e4:	2781                	sext.w	a5,a5
    502027e6:	1782                	slli	a5,a5,0x20
    502027e8:	9381                	srli	a5,a5,0x20
    502027ea:	fb043703          	ld	a4,-80(s0)
    502027ee:	973e                	add	a4,a4,a5
    502027f0:	fe046783          	lwu	a5,-32(s0)
    502027f4:	fb043683          	ld	a3,-80(s0)
    502027f8:	97b6                	add	a5,a5,a3
    502027fa:	00074703          	lbu	a4,0(a4)
    502027fe:	00e78023          	sb	a4,0(a5)
    50202802:	fd842703          	lw	a4,-40(s0)
    50202806:	fe042783          	lw	a5,-32(s0)
    5020280a:	40f707bb          	subw	a5,a4,a5
    5020280e:	2781                	sext.w	a5,a5
    50202810:	37fd                	addiw	a5,a5,-1
    50202812:	2781                	sext.w	a5,a5
    50202814:	1782                	slli	a5,a5,0x20
    50202816:	9381                	srli	a5,a5,0x20
    50202818:	fb043703          	ld	a4,-80(s0)
    5020281c:	97ba                	add	a5,a5,a4
    5020281e:	fd744703          	lbu	a4,-41(s0)
    50202822:	00e78023          	sb	a4,0(a5)
    50202826:	fe042783          	lw	a5,-32(s0)
    5020282a:	2785                	addiw	a5,a5,1
    5020282c:	fef42023          	sw	a5,-32(s0)
    50202830:	fd842783          	lw	a5,-40(s0)
    50202834:	0017d79b          	srliw	a5,a5,0x1
    50202838:	0007871b          	sext.w	a4,a5
    5020283c:	fe042783          	lw	a5,-32(s0)
    50202840:	2781                	sext.w	a5,a5
    50202842:	f8e7e0e3          	bltu	a5,a4,502027c2 <mini_itoa+0x160>
    50202846:	fd842783          	lw	a5,-40(s0)
    5020284a:	853e                	mv	a0,a5
    5020284c:	6426                	ld	s0,72(sp)
    5020284e:	6161                	addi	sp,sp,80
    50202850:	8082                	ret

0000000050202852 <_putc>:
    50202852:	1101                	addi	sp,sp,-32
    50202854:	ec22                	sd	s0,24(sp)
    50202856:	1000                	addi	s0,sp,32
    50202858:	87aa                	mv	a5,a0
    5020285a:	feb43023          	sd	a1,-32(s0)
    5020285e:	fef42623          	sw	a5,-20(s0)
    50202862:	fe043783          	ld	a5,-32(s0)
    50202866:	6798                	ld	a4,8(a5)
    50202868:	fe043783          	ld	a5,-32(s0)
    5020286c:	639c                	ld	a5,0(a5)
    5020286e:	40f707b3          	sub	a5,a4,a5
    50202872:	2781                	sext.w	a5,a5
    50202874:	2785                	addiw	a5,a5,1
    50202876:	0007871b          	sext.w	a4,a5
    5020287a:	fe043783          	ld	a5,-32(s0)
    5020287e:	4b9c                	lw	a5,16(a5)
    50202880:	00f76463          	bltu	a4,a5,50202888 <_putc+0x36>
    50202884:	4781                	li	a5,0
    50202886:	a02d                	j	502028b0 <_putc+0x5e>
    50202888:	fe043783          	ld	a5,-32(s0)
    5020288c:	679c                	ld	a5,8(a5)
    5020288e:	00178693          	addi	a3,a5,1
    50202892:	fe043703          	ld	a4,-32(s0)
    50202896:	e714                	sd	a3,8(a4)
    50202898:	fec42703          	lw	a4,-20(s0)
    5020289c:	0ff77713          	andi	a4,a4,255
    502028a0:	00e78023          	sb	a4,0(a5)
    502028a4:	fe043783          	ld	a5,-32(s0)
    502028a8:	679c                	ld	a5,8(a5)
    502028aa:	00078023          	sb	zero,0(a5)
    502028ae:	4785                	li	a5,1
    502028b0:	853e                	mv	a0,a5
    502028b2:	6462                	ld	s0,24(sp)
    502028b4:	6105                	addi	sp,sp,32
    502028b6:	8082                	ret

00000000502028b8 <_puts>:
    502028b8:	7139                	addi	sp,sp,-64
    502028ba:	fc22                	sd	s0,56(sp)
    502028bc:	0080                	addi	s0,sp,64
    502028be:	fca43c23          	sd	a0,-40(s0)
    502028c2:	87ae                	mv	a5,a1
    502028c4:	fcc43423          	sd	a2,-56(s0)
    502028c8:	fcf42a23          	sw	a5,-44(s0)
    502028cc:	fc843783          	ld	a5,-56(s0)
    502028d0:	4b9c                	lw	a5,16(a5)
    502028d2:	02079713          	slli	a4,a5,0x20
    502028d6:	9301                	srli	a4,a4,0x20
    502028d8:	fc843783          	ld	a5,-56(s0)
    502028dc:	6794                	ld	a3,8(a5)
    502028de:	fc843783          	ld	a5,-56(s0)
    502028e2:	639c                	ld	a5,0(a5)
    502028e4:	40f687b3          	sub	a5,a3,a5
    502028e8:	8f1d                	sub	a4,a4,a5
    502028ea:	fd446783          	lwu	a5,-44(s0)
    502028ee:	02e7c463          	blt	a5,a4,50202916 <_puts+0x5e>
    502028f2:	fc843783          	ld	a5,-56(s0)
    502028f6:	4b98                	lw	a4,16(a5)
    502028f8:	fc843783          	ld	a5,-56(s0)
    502028fc:	6794                	ld	a3,8(a5)
    502028fe:	fc843783          	ld	a5,-56(s0)
    50202902:	639c                	ld	a5,0(a5)
    50202904:	40f687b3          	sub	a5,a3,a5
    50202908:	2781                	sext.w	a5,a5
    5020290a:	40f707bb          	subw	a5,a4,a5
    5020290e:	2781                	sext.w	a5,a5
    50202910:	37fd                	addiw	a5,a5,-1
    50202912:	fcf42a23          	sw	a5,-44(s0)
    50202916:	fe042623          	sw	zero,-20(s0)
    5020291a:	a03d                	j	50202948 <_puts+0x90>
    5020291c:	fec46783          	lwu	a5,-20(s0)
    50202920:	fd843703          	ld	a4,-40(s0)
    50202924:	973e                	add	a4,a4,a5
    50202926:	fc843783          	ld	a5,-56(s0)
    5020292a:	679c                	ld	a5,8(a5)
    5020292c:	00178613          	addi	a2,a5,1
    50202930:	fc843683          	ld	a3,-56(s0)
    50202934:	e690                	sd	a2,8(a3)
    50202936:	00074703          	lbu	a4,0(a4)
    5020293a:	00e78023          	sb	a4,0(a5)
    5020293e:	fec42783          	lw	a5,-20(s0)
    50202942:	2785                	addiw	a5,a5,1
    50202944:	fef42623          	sw	a5,-20(s0)
    50202948:	fec42703          	lw	a4,-20(s0)
    5020294c:	fd442783          	lw	a5,-44(s0)
    50202950:	2701                	sext.w	a4,a4
    50202952:	2781                	sext.w	a5,a5
    50202954:	fcf764e3          	bltu	a4,a5,5020291c <_puts+0x64>
    50202958:	fc843783          	ld	a5,-56(s0)
    5020295c:	679c                	ld	a5,8(a5)
    5020295e:	00078023          	sb	zero,0(a5)
    50202962:	fd442783          	lw	a5,-44(s0)
    50202966:	853e                	mv	a0,a5
    50202968:	7462                	ld	s0,56(sp)
    5020296a:	6121                	addi	sp,sp,64
    5020296c:	8082                	ret

000000005020296e <mini_vsnprintf>:
    5020296e:	7119                	addi	sp,sp,-128
    50202970:	fc86                	sd	ra,120(sp)
    50202972:	f8a2                	sd	s0,112(sp)
    50202974:	0100                	addi	s0,sp,128
    50202976:	f8a43c23          	sd	a0,-104(s0)
    5020297a:	87ae                	mv	a5,a1
    5020297c:	f8c43423          	sd	a2,-120(s0)
    50202980:	f8d43023          	sd	a3,-128(s0)
    50202984:	f8f42a23          	sw	a5,-108(s0)
    50202988:	f9843783          	ld	a5,-104(s0)
    5020298c:	fcf43023          	sd	a5,-64(s0)
    50202990:	f9843783          	ld	a5,-104(s0)
    50202994:	fcf43423          	sd	a5,-56(s0)
    50202998:	f9442783          	lw	a5,-108(s0)
    5020299c:	fcf42823          	sw	a5,-48(s0)
    502029a0:	a4f9                	j	50202c6e <mini_vsnprintf+0x300>
    502029a2:	fc843703          	ld	a4,-56(s0)
    502029a6:	fc043783          	ld	a5,-64(s0)
    502029aa:	40f707b3          	sub	a5,a4,a5
    502029ae:	2781                	sext.w	a5,a5
    502029b0:	2785                	addiw	a5,a5,1
    502029b2:	0007871b          	sext.w	a4,a5
    502029b6:	fd042783          	lw	a5,-48(s0)
    502029ba:	2cf77b63          	bgeu	a4,a5,50202c90 <mini_vsnprintf+0x322>
    502029be:	fef44783          	lbu	a5,-17(s0)
    502029c2:	0ff7f713          	andi	a4,a5,255
    502029c6:	02500793          	li	a5,37
    502029ca:	00f70c63          	beq	a4,a5,502029e2 <mini_vsnprintf+0x74>
    502029ce:	fef44783          	lbu	a5,-17(s0)
    502029d2:	2781                	sext.w	a5,a5
    502029d4:	fc040713          	addi	a4,s0,-64
    502029d8:	85ba                	mv	a1,a4
    502029da:	853e                	mv	a0,a5
    502029dc:	e77ff0ef          	jal	ra,50202852 <_putc>
    502029e0:	a479                	j	50202c6e <mini_vsnprintf+0x300>
    502029e2:	fe040723          	sb	zero,-18(s0)
    502029e6:	fe042423          	sw	zero,-24(s0)
    502029ea:	f8843783          	ld	a5,-120(s0)
    502029ee:	00178713          	addi	a4,a5,1
    502029f2:	f8e43423          	sd	a4,-120(s0)
    502029f6:	0007c783          	lbu	a5,0(a5)
    502029fa:	fef407a3          	sb	a5,-17(s0)
    502029fe:	fef44783          	lbu	a5,-17(s0)
    50202a02:	0ff7f713          	andi	a4,a5,255
    50202a06:	03000793          	li	a5,48
    50202a0a:	06f71b63          	bne	a4,a5,50202a80 <mini_vsnprintf+0x112>
    50202a0e:	a891                	j	50202a62 <mini_vsnprintf+0xf4>
    50202a10:	fef44783          	lbu	a5,-17(s0)
    50202a14:	0ff7f793          	andi	a5,a5,255
    50202a18:	26078e63          	beqz	a5,50202c94 <mini_vsnprintf+0x326>
    50202a1c:	fef44783          	lbu	a5,-17(s0)
    50202a20:	0ff7f713          	andi	a4,a5,255
    50202a24:	02f00793          	li	a5,47
    50202a28:	04e7fc63          	bgeu	a5,a4,50202a80 <mini_vsnprintf+0x112>
    50202a2c:	fef44783          	lbu	a5,-17(s0)
    50202a30:	0ff7f713          	andi	a4,a5,255
    50202a34:	03900793          	li	a5,57
    50202a38:	04e7e463          	bltu	a5,a4,50202a80 <mini_vsnprintf+0x112>
    50202a3c:	fee44703          	lbu	a4,-18(s0)
    50202a40:	87ba                	mv	a5,a4
    50202a42:	0027979b          	slliw	a5,a5,0x2
    50202a46:	9fb9                	addw	a5,a5,a4
    50202a48:	0017979b          	slliw	a5,a5,0x1
    50202a4c:	0ff7f793          	andi	a5,a5,255
    50202a50:	fef44703          	lbu	a4,-17(s0)
    50202a54:	9fb9                	addw	a5,a5,a4
    50202a56:	0ff7f793          	andi	a5,a5,255
    50202a5a:	fd07879b          	addiw	a5,a5,-48
    50202a5e:	fef40723          	sb	a5,-18(s0)
    50202a62:	f8843783          	ld	a5,-120(s0)
    50202a66:	00178713          	addi	a4,a5,1
    50202a6a:	f8e43423          	sd	a4,-120(s0)
    50202a6e:	0007c783          	lbu	a5,0(a5)
    50202a72:	fef407a3          	sb	a5,-17(s0)
    50202a76:	fef44783          	lbu	a5,-17(s0)
    50202a7a:	0ff7f793          	andi	a5,a5,255
    50202a7e:	fbc9                	bnez	a5,50202a10 <mini_vsnprintf+0xa2>
    50202a80:	fef44783          	lbu	a5,-17(s0)
    50202a84:	0ff7f713          	andi	a4,a5,255
    50202a88:	06c00793          	li	a5,108
    50202a8c:	00f71f63          	bne	a4,a5,50202aaa <mini_vsnprintf+0x13c>
    50202a90:	4785                	li	a5,1
    50202a92:	fef42423          	sw	a5,-24(s0)
    50202a96:	f8843783          	ld	a5,-120(s0)
    50202a9a:	00178713          	addi	a4,a5,1
    50202a9e:	f8e43423          	sd	a4,-120(s0)
    50202aa2:	0007c783          	lbu	a5,0(a5)
    50202aa6:	fef407a3          	sb	a5,-17(s0)
    50202aaa:	fef44783          	lbu	a5,-17(s0)
    50202aae:	2781                	sext.w	a5,a5
    50202ab0:	1e078463          	beqz	a5,50202c98 <mini_vsnprintf+0x32a>
    50202ab4:	873e                	mv	a4,a5
    50202ab6:	1a074263          	bltz	a4,50202c5a <mini_vsnprintf+0x2ec>
    50202aba:	86be                	mv	a3,a5
    50202abc:	07800713          	li	a4,120
    50202ac0:	18d74d63          	blt	a4,a3,50202c5a <mini_vsnprintf+0x2ec>
    50202ac4:	86be                	mv	a3,a5
    50202ac6:	05800713          	li	a4,88
    50202aca:	18e6c863          	blt	a3,a4,50202c5a <mini_vsnprintf+0x2ec>
    50202ace:	fa87869b          	addiw	a3,a5,-88
    50202ad2:	0006871b          	sext.w	a4,a3
    50202ad6:	02000793          	li	a5,32
    50202ada:	18e7e063          	bltu	a5,a4,50202c5a <mini_vsnprintf+0x2ec>
    50202ade:	02069793          	slli	a5,a3,0x20
    50202ae2:	9381                	srli	a5,a5,0x20
    50202ae4:	00279713          	slli	a4,a5,0x2
    50202ae8:	00002797          	auipc	a5,0x2
    50202aec:	8a878793          	addi	a5,a5,-1880 # 50204390 <__FUNCTION__.1220+0x20>
    50202af0:	97ba                	add	a5,a5,a4
    50202af2:	439c                	lw	a5,0(a5)
    50202af4:	0007871b          	sext.w	a4,a5
    50202af8:	00002797          	auipc	a5,0x2
    50202afc:	89878793          	addi	a5,a5,-1896 # 50204390 <__FUNCTION__.1220+0x20>
    50202b00:	97ba                	add	a5,a5,a4
    50202b02:	8782                	jr	a5
    50202b04:	4785                	li	a5,1
    50202b06:	fef42423          	sw	a5,-24(s0)
    50202b0a:	a295                	j	50202c6e <mini_vsnprintf+0x300>
    50202b0c:	fe842783          	lw	a5,-24(s0)
    50202b10:	2781                	sext.w	a5,a5
    50202b12:	ef81                	bnez	a5,50202b2a <mini_vsnprintf+0x1bc>
    50202b14:	f8043783          	ld	a5,-128(s0)
    50202b18:	00878713          	addi	a4,a5,8
    50202b1c:	f8e43023          	sd	a4,-128(s0)
    50202b20:	439c                	lw	a5,0(a5)
    50202b22:	02079513          	slli	a0,a5,0x20
    50202b26:	9101                	srli	a0,a0,0x20
    50202b28:	a809                	j	50202b3a <mini_vsnprintf+0x1cc>
    50202b2a:	f8043783          	ld	a5,-128(s0)
    50202b2e:	00878713          	addi	a4,a5,8
    50202b32:	f8e43023          	sd	a4,-128(s0)
    50202b36:	639c                	ld	a5,0(a5)
    50202b38:	853e                	mv	a0,a5
    50202b3a:	fef44783          	lbu	a5,-17(s0)
    50202b3e:	0007871b          	sext.w	a4,a5
    50202b42:	07500793          	li	a5,117
    50202b46:	40f707b3          	sub	a5,a4,a5
    50202b4a:	0017b793          	seqz	a5,a5
    50202b4e:	0ff7f793          	andi	a5,a5,255
    50202b52:	0007869b          	sext.w	a3,a5
    50202b56:	fee44783          	lbu	a5,-18(s0)
    50202b5a:	2781                	sext.w	a5,a5
    50202b5c:	fa840713          	addi	a4,s0,-88
    50202b60:	4601                	li	a2,0
    50202b62:	45a9                	li	a1,10
    50202b64:	affff0ef          	jal	ra,50202662 <mini_itoa>
    50202b68:	87aa                	mv	a5,a0
    50202b6a:	fcf42e23          	sw	a5,-36(s0)
    50202b6e:	fc040693          	addi	a3,s0,-64
    50202b72:	fdc42703          	lw	a4,-36(s0)
    50202b76:	fa840793          	addi	a5,s0,-88
    50202b7a:	8636                	mv	a2,a3
    50202b7c:	85ba                	mv	a1,a4
    50202b7e:	853e                	mv	a0,a5
    50202b80:	d39ff0ef          	jal	ra,502028b8 <_puts>
    50202b84:	fe042423          	sw	zero,-24(s0)
    50202b88:	a0dd                	j	50202c6e <mini_vsnprintf+0x300>
    50202b8a:	fe842783          	lw	a5,-24(s0)
    50202b8e:	2781                	sext.w	a5,a5
    50202b90:	ef81                	bnez	a5,50202ba8 <mini_vsnprintf+0x23a>
    50202b92:	f8043783          	ld	a5,-128(s0)
    50202b96:	00878713          	addi	a4,a5,8
    50202b9a:	f8e43023          	sd	a4,-128(s0)
    50202b9e:	439c                	lw	a5,0(a5)
    50202ba0:	02079513          	slli	a0,a5,0x20
    50202ba4:	9101                	srli	a0,a0,0x20
    50202ba6:	a809                	j	50202bb8 <mini_vsnprintf+0x24a>
    50202ba8:	f8043783          	ld	a5,-128(s0)
    50202bac:	00878713          	addi	a4,a5,8
    50202bb0:	f8e43023          	sd	a4,-128(s0)
    50202bb4:	639c                	ld	a5,0(a5)
    50202bb6:	853e                	mv	a0,a5
    50202bb8:	fef44783          	lbu	a5,-17(s0)
    50202bbc:	0007871b          	sext.w	a4,a5
    50202bc0:	05800793          	li	a5,88
    50202bc4:	40f707b3          	sub	a5,a4,a5
    50202bc8:	0017b793          	seqz	a5,a5
    50202bcc:	0ff7f793          	andi	a5,a5,255
    50202bd0:	0007861b          	sext.w	a2,a5
    50202bd4:	fee44783          	lbu	a5,-18(s0)
    50202bd8:	2781                	sext.w	a5,a5
    50202bda:	fa840713          	addi	a4,s0,-88
    50202bde:	4685                	li	a3,1
    50202be0:	45c1                	li	a1,16
    50202be2:	a81ff0ef          	jal	ra,50202662 <mini_itoa>
    50202be6:	87aa                	mv	a5,a0
    50202be8:	fcf42e23          	sw	a5,-36(s0)
    50202bec:	fc040693          	addi	a3,s0,-64
    50202bf0:	fdc42703          	lw	a4,-36(s0)
    50202bf4:	fa840793          	addi	a5,s0,-88
    50202bf8:	8636                	mv	a2,a3
    50202bfa:	85ba                	mv	a1,a4
    50202bfc:	853e                	mv	a0,a5
    50202bfe:	cbbff0ef          	jal	ra,502028b8 <_puts>
    50202c02:	fe042423          	sw	zero,-24(s0)
    50202c06:	a0a5                	j	50202c6e <mini_vsnprintf+0x300>
    50202c08:	f8043783          	ld	a5,-128(s0)
    50202c0c:	00878713          	addi	a4,a5,8
    50202c10:	f8e43023          	sd	a4,-128(s0)
    50202c14:	439c                	lw	a5,0(a5)
    50202c16:	0ff7f793          	andi	a5,a5,255
    50202c1a:	2781                	sext.w	a5,a5
    50202c1c:	fc040713          	addi	a4,s0,-64
    50202c20:	85ba                	mv	a1,a4
    50202c22:	853e                	mv	a0,a5
    50202c24:	c2fff0ef          	jal	ra,50202852 <_putc>
    50202c28:	a099                	j	50202c6e <mini_vsnprintf+0x300>
    50202c2a:	f8043783          	ld	a5,-128(s0)
    50202c2e:	00878713          	addi	a4,a5,8
    50202c32:	f8e43023          	sd	a4,-128(s0)
    50202c36:	639c                	ld	a5,0(a5)
    50202c38:	fef43023          	sd	a5,-32(s0)
    50202c3c:	fe043503          	ld	a0,-32(s0)
    50202c40:	9edff0ef          	jal	ra,5020262c <mini_strlen>
    50202c44:	87aa                	mv	a5,a0
    50202c46:	2781                	sext.w	a5,a5
    50202c48:	fc040713          	addi	a4,s0,-64
    50202c4c:	863a                	mv	a2,a4
    50202c4e:	85be                	mv	a1,a5
    50202c50:	fe043503          	ld	a0,-32(s0)
    50202c54:	c65ff0ef          	jal	ra,502028b8 <_puts>
    50202c58:	a819                	j	50202c6e <mini_vsnprintf+0x300>
    50202c5a:	fef44783          	lbu	a5,-17(s0)
    50202c5e:	2781                	sext.w	a5,a5
    50202c60:	fc040713          	addi	a4,s0,-64
    50202c64:	85ba                	mv	a1,a4
    50202c66:	853e                	mv	a0,a5
    50202c68:	bebff0ef          	jal	ra,50202852 <_putc>
    50202c6c:	0001                	nop
    50202c6e:	f8843783          	ld	a5,-120(s0)
    50202c72:	00178713          	addi	a4,a5,1
    50202c76:	f8e43423          	sd	a4,-120(s0)
    50202c7a:	0007c783          	lbu	a5,0(a5)
    50202c7e:	fef407a3          	sb	a5,-17(s0)
    50202c82:	fef44783          	lbu	a5,-17(s0)
    50202c86:	0ff7f793          	andi	a5,a5,255
    50202c8a:	d0079ce3          	bnez	a5,502029a2 <mini_vsnprintf+0x34>
    50202c8e:	a031                	j	50202c9a <mini_vsnprintf+0x32c>
    50202c90:	0001                	nop
    50202c92:	a021                	j	50202c9a <mini_vsnprintf+0x32c>
    50202c94:	0001                	nop
    50202c96:	a011                	j	50202c9a <mini_vsnprintf+0x32c>
    50202c98:	0001                	nop
    50202c9a:	fc843703          	ld	a4,-56(s0)
    50202c9e:	fc043783          	ld	a5,-64(s0)
    50202ca2:	40f707b3          	sub	a5,a4,a5
    50202ca6:	2781                	sext.w	a5,a5
    50202ca8:	853e                	mv	a0,a5
    50202caa:	70e6                	ld	ra,120(sp)
    50202cac:	7446                	ld	s0,112(sp)
    50202cae:	6109                	addi	sp,sp,128
    50202cb0:	8082                	ret

0000000050202cb2 <vprintk>:
    50202cb2:	7169                	addi	sp,sp,-304
    50202cb4:	f606                	sd	ra,296(sp)
    50202cb6:	f222                	sd	s0,288(sp)
    50202cb8:	1a00                	addi	s0,sp,304
    50202cba:	eca43c23          	sd	a0,-296(s0)
    50202cbe:	ecb43823          	sd	a1,-304(s0)
    50202cc2:	ed043783          	ld	a5,-304(s0)
    50202cc6:	fef43023          	sd	a5,-32(s0)
    50202cca:	fe043703          	ld	a4,-32(s0)
    50202cce:	ee040793          	addi	a5,s0,-288
    50202cd2:	86ba                	mv	a3,a4
    50202cd4:	ed843603          	ld	a2,-296(s0)
    50202cd8:	10000593          	li	a1,256
    50202cdc:	853e                	mv	a0,a5
    50202cde:	c91ff0ef          	jal	ra,5020296e <mini_vsnprintf>
    50202ce2:	87aa                	mv	a5,a0
    50202ce4:	fef42423          	sw	a5,-24(s0)
    50202ce8:	fe842783          	lw	a5,-24(s0)
    50202cec:	ff040713          	addi	a4,s0,-16
    50202cf0:	97ba                	add	a5,a5,a4
    50202cf2:	ee078823          	sb	zero,-272(a5)
    50202cf6:	b92fe0ef          	jal	ra,50201088 <disable_preempt>
    50202cfa:	ee040793          	addi	a5,s0,-288
    50202cfe:	853e                	mv	a0,a5
    50202d00:	c66fe0ef          	jal	ra,50201166 <port_write>
    50202d04:	fe042623          	sw	zero,-20(s0)
    50202d08:	a0bd                	j	50202d76 <vprintk+0xc4>
    50202d0a:	fec42783          	lw	a5,-20(s0)
    50202d0e:	ff040713          	addi	a4,s0,-16
    50202d12:	97ba                	add	a5,a5,a4
    50202d14:	ef07c783          	lbu	a5,-272(a5)
    50202d18:	873e                	mv	a4,a5
    50202d1a:	47a9                	li	a5,10
    50202d1c:	00f71c63          	bne	a4,a5,50202d34 <vprintk+0x82>
    50202d20:	00004797          	auipc	a5,0x4
    50202d24:	60078793          	addi	a5,a5,1536 # 50207320 <current_running>
    50202d28:	639c                	ld	a5,0(a5)
    50202d2a:	5f98                	lw	a4,56(a5)
    50202d2c:	2705                	addiw	a4,a4,1
    50202d2e:	2701                	sext.w	a4,a4
    50202d30:	df98                	sw	a4,56(a5)
    50202d32:	a82d                	j	50202d6c <vprintk+0xba>
    50202d34:	fec42783          	lw	a5,-20(s0)
    50202d38:	ff040713          	addi	a4,s0,-16
    50202d3c:	97ba                	add	a5,a5,a4
    50202d3e:	ef07c783          	lbu	a5,-272(a5)
    50202d42:	873e                	mv	a4,a5
    50202d44:	47b5                	li	a5,13
    50202d46:	00f71a63          	bne	a4,a5,50202d5a <vprintk+0xa8>
    50202d4a:	00004797          	auipc	a5,0x4
    50202d4e:	5d678793          	addi	a5,a5,1494 # 50207320 <current_running>
    50202d52:	639c                	ld	a5,0(a5)
    50202d54:	4705                	li	a4,1
    50202d56:	dbd8                	sw	a4,52(a5)
    50202d58:	a811                	j	50202d6c <vprintk+0xba>
    50202d5a:	00004797          	auipc	a5,0x4
    50202d5e:	5c678793          	addi	a5,a5,1478 # 50207320 <current_running>
    50202d62:	639c                	ld	a5,0(a5)
    50202d64:	5bd8                	lw	a4,52(a5)
    50202d66:	2705                	addiw	a4,a4,1
    50202d68:	2701                	sext.w	a4,a4
    50202d6a:	dbd8                	sw	a4,52(a5)
    50202d6c:	fec42783          	lw	a5,-20(s0)
    50202d70:	2785                	addiw	a5,a5,1
    50202d72:	fef42623          	sw	a5,-20(s0)
    50202d76:	fec42703          	lw	a4,-20(s0)
    50202d7a:	fe842783          	lw	a5,-24(s0)
    50202d7e:	2701                	sext.w	a4,a4
    50202d80:	2781                	sext.w	a5,a5
    50202d82:	f8f744e3          	blt	a4,a5,50202d0a <vprintk+0x58>
    50202d86:	adafe0ef          	jal	ra,50201060 <enable_preempt>
    50202d8a:	fe842783          	lw	a5,-24(s0)
    50202d8e:	853e                	mv	a0,a5
    50202d90:	70b2                	ld	ra,296(sp)
    50202d92:	7412                	ld	s0,288(sp)
    50202d94:	6155                	addi	sp,sp,304
    50202d96:	8082                	ret

0000000050202d98 <printk>:
    50202d98:	7159                	addi	sp,sp,-112
    50202d9a:	f406                	sd	ra,40(sp)
    50202d9c:	f022                	sd	s0,32(sp)
    50202d9e:	1800                	addi	s0,sp,48
    50202da0:	fca43c23          	sd	a0,-40(s0)
    50202da4:	e40c                	sd	a1,8(s0)
    50202da6:	e810                	sd	a2,16(s0)
    50202da8:	ec14                	sd	a3,24(s0)
    50202daa:	f018                	sd	a4,32(s0)
    50202dac:	f41c                	sd	a5,40(s0)
    50202dae:	03043823          	sd	a6,48(s0)
    50202db2:	03143c23          	sd	a7,56(s0)
    50202db6:	fe042623          	sw	zero,-20(s0)
    50202dba:	04040793          	addi	a5,s0,64
    50202dbe:	fcf43823          	sd	a5,-48(s0)
    50202dc2:	fd043783          	ld	a5,-48(s0)
    50202dc6:	fc878793          	addi	a5,a5,-56
    50202dca:	fef43023          	sd	a5,-32(s0)
    50202dce:	fe043783          	ld	a5,-32(s0)
    50202dd2:	85be                	mv	a1,a5
    50202dd4:	fd843503          	ld	a0,-40(s0)
    50202dd8:	edbff0ef          	jal	ra,50202cb2 <vprintk>
    50202ddc:	87aa                	mv	a5,a0
    50202dde:	fef42623          	sw	a5,-20(s0)
    50202de2:	fec42783          	lw	a5,-20(s0)
    50202de6:	853e                	mv	a0,a5
    50202de8:	70a2                	ld	ra,40(sp)
    50202dea:	7402                	ld	s0,32(sp)
    50202dec:	6165                	addi	sp,sp,112
    50202dee:	8082                	ret

0000000050202df0 <mini_itoa>:
    50202df0:	715d                	addi	sp,sp,-80
    50202df2:	e4a2                	sd	s0,72(sp)
    50202df4:	0880                	addi	s0,sp,80
    50202df6:	fca43423          	sd	a0,-56(s0)
    50202dfa:	fae43823          	sd	a4,-80(s0)
    50202dfe:	873e                	mv	a4,a5
    50202e00:	87ae                	mv	a5,a1
    50202e02:	fcf42223          	sw	a5,-60(s0)
    50202e06:	87b2                	mv	a5,a2
    50202e08:	fcf42023          	sw	a5,-64(s0)
    50202e0c:	87b6                	mv	a5,a3
    50202e0e:	faf42e23          	sw	a5,-68(s0)
    50202e12:	87ba                	mv	a5,a4
    50202e14:	faf42c23          	sw	a5,-72(s0)
    50202e18:	fb043783          	ld	a5,-80(s0)
    50202e1c:	fef43423          	sd	a5,-24(s0)
    50202e20:	fe042223          	sw	zero,-28(s0)
    50202e24:	fc442783          	lw	a5,-60(s0)
    50202e28:	0007871b          	sext.w	a4,a5
    50202e2c:	47c1                	li	a5,16
    50202e2e:	00e7f463          	bgeu	a5,a4,50202e36 <mini_itoa+0x46>
    50202e32:	4781                	li	a5,0
    50202e34:	a255                	j	50202fd8 <mini_itoa+0x1e8>
    50202e36:	fc843783          	ld	a5,-56(s0)
    50202e3a:	0007df63          	bgez	a5,50202e58 <mini_itoa+0x68>
    50202e3e:	fbc42783          	lw	a5,-68(s0)
    50202e42:	2781                	sext.w	a5,a5
    50202e44:	eb91                	bnez	a5,50202e58 <mini_itoa+0x68>
    50202e46:	4785                	li	a5,1
    50202e48:	fef42223          	sw	a5,-28(s0)
    50202e4c:	fc843783          	ld	a5,-56(s0)
    50202e50:	40f007b3          	neg	a5,a5
    50202e54:	fcf43423          	sd	a5,-56(s0)
    50202e58:	fc446783          	lwu	a5,-60(s0)
    50202e5c:	fc843703          	ld	a4,-56(s0)
    50202e60:	02f767b3          	rem	a5,a4,a5
    50202e64:	fcf42e23          	sw	a5,-36(s0)
    50202e68:	fdc42783          	lw	a5,-36(s0)
    50202e6c:	0007871b          	sext.w	a4,a5
    50202e70:	47a5                	li	a5,9
    50202e72:	00e7cb63          	blt	a5,a4,50202e88 <mini_itoa+0x98>
    50202e76:	fdc42783          	lw	a5,-36(s0)
    50202e7a:	0ff7f793          	andi	a5,a5,255
    50202e7e:	0307879b          	addiw	a5,a5,48
    50202e82:	0ff7f713          	andi	a4,a5,255
    50202e86:	a025                	j	50202eae <mini_itoa+0xbe>
    50202e88:	fc042783          	lw	a5,-64(s0)
    50202e8c:	2781                	sext.w	a5,a5
    50202e8e:	c781                	beqz	a5,50202e96 <mini_itoa+0xa6>
    50202e90:	04100793          	li	a5,65
    50202e94:	a019                	j	50202e9a <mini_itoa+0xaa>
    50202e96:	06100793          	li	a5,97
    50202e9a:	fdc42703          	lw	a4,-36(s0)
    50202e9e:	0ff77713          	andi	a4,a4,255
    50202ea2:	9fb9                	addw	a5,a5,a4
    50202ea4:	0ff7f793          	andi	a5,a5,255
    50202ea8:	37d9                	addiw	a5,a5,-10
    50202eaa:	0ff7f713          	andi	a4,a5,255
    50202eae:	fe843783          	ld	a5,-24(s0)
    50202eb2:	00178693          	addi	a3,a5,1
    50202eb6:	fed43423          	sd	a3,-24(s0)
    50202eba:	00e78023          	sb	a4,0(a5)
    50202ebe:	fc446783          	lwu	a5,-60(s0)
    50202ec2:	fc843703          	ld	a4,-56(s0)
    50202ec6:	02f747b3          	div	a5,a4,a5
    50202eca:	fcf43423          	sd	a5,-56(s0)
    50202ece:	fc843783          	ld	a5,-56(s0)
    50202ed2:	f8f043e3          	bgtz	a5,50202e58 <mini_itoa+0x68>
    50202ed6:	fe843703          	ld	a4,-24(s0)
    50202eda:	fb043783          	ld	a5,-80(s0)
    50202ede:	40f707b3          	sub	a5,a4,a5
    50202ee2:	fef42023          	sw	a5,-32(s0)
    50202ee6:	a005                	j	50202f06 <mini_itoa+0x116>
    50202ee8:	fe843783          	ld	a5,-24(s0)
    50202eec:	00178713          	addi	a4,a5,1
    50202ef0:	fee43423          	sd	a4,-24(s0)
    50202ef4:	03000713          	li	a4,48
    50202ef8:	00e78023          	sb	a4,0(a5)
    50202efc:	fe042783          	lw	a5,-32(s0)
    50202f00:	2785                	addiw	a5,a5,1
    50202f02:	fef42023          	sw	a5,-32(s0)
    50202f06:	fe042703          	lw	a4,-32(s0)
    50202f0a:	fb842783          	lw	a5,-72(s0)
    50202f0e:	2701                	sext.w	a4,a4
    50202f10:	2781                	sext.w	a5,a5
    50202f12:	fcf76be3          	bltu	a4,a5,50202ee8 <mini_itoa+0xf8>
    50202f16:	fe442783          	lw	a5,-28(s0)
    50202f1a:	2781                	sext.w	a5,a5
    50202f1c:	cb99                	beqz	a5,50202f32 <mini_itoa+0x142>
    50202f1e:	fe843783          	ld	a5,-24(s0)
    50202f22:	00178713          	addi	a4,a5,1
    50202f26:	fee43423          	sd	a4,-24(s0)
    50202f2a:	02d00713          	li	a4,45
    50202f2e:	00e78023          	sb	a4,0(a5)
    50202f32:	fe843783          	ld	a5,-24(s0)
    50202f36:	00078023          	sb	zero,0(a5)
    50202f3a:	fe843703          	ld	a4,-24(s0)
    50202f3e:	fb043783          	ld	a5,-80(s0)
    50202f42:	40f707b3          	sub	a5,a4,a5
    50202f46:	fcf42c23          	sw	a5,-40(s0)
    50202f4a:	fe042023          	sw	zero,-32(s0)
    50202f4e:	a885                	j	50202fbe <mini_itoa+0x1ce>
    50202f50:	fe046783          	lwu	a5,-32(s0)
    50202f54:	fb043703          	ld	a4,-80(s0)
    50202f58:	97ba                	add	a5,a5,a4
    50202f5a:	0007c783          	lbu	a5,0(a5)
    50202f5e:	fcf40ba3          	sb	a5,-41(s0)
    50202f62:	fd842703          	lw	a4,-40(s0)
    50202f66:	fe042783          	lw	a5,-32(s0)
    50202f6a:	40f707bb          	subw	a5,a4,a5
    50202f6e:	2781                	sext.w	a5,a5
    50202f70:	37fd                	addiw	a5,a5,-1
    50202f72:	2781                	sext.w	a5,a5
    50202f74:	1782                	slli	a5,a5,0x20
    50202f76:	9381                	srli	a5,a5,0x20
    50202f78:	fb043703          	ld	a4,-80(s0)
    50202f7c:	973e                	add	a4,a4,a5
    50202f7e:	fe046783          	lwu	a5,-32(s0)
    50202f82:	fb043683          	ld	a3,-80(s0)
    50202f86:	97b6                	add	a5,a5,a3
    50202f88:	00074703          	lbu	a4,0(a4)
    50202f8c:	00e78023          	sb	a4,0(a5)
    50202f90:	fd842703          	lw	a4,-40(s0)
    50202f94:	fe042783          	lw	a5,-32(s0)
    50202f98:	40f707bb          	subw	a5,a4,a5
    50202f9c:	2781                	sext.w	a5,a5
    50202f9e:	37fd                	addiw	a5,a5,-1
    50202fa0:	2781                	sext.w	a5,a5
    50202fa2:	1782                	slli	a5,a5,0x20
    50202fa4:	9381                	srli	a5,a5,0x20
    50202fa6:	fb043703          	ld	a4,-80(s0)
    50202faa:	97ba                	add	a5,a5,a4
    50202fac:	fd744703          	lbu	a4,-41(s0)
    50202fb0:	00e78023          	sb	a4,0(a5)
    50202fb4:	fe042783          	lw	a5,-32(s0)
    50202fb8:	2785                	addiw	a5,a5,1
    50202fba:	fef42023          	sw	a5,-32(s0)
    50202fbe:	fd842783          	lw	a5,-40(s0)
    50202fc2:	0017d79b          	srliw	a5,a5,0x1
    50202fc6:	0007871b          	sext.w	a4,a5
    50202fca:	fe042783          	lw	a5,-32(s0)
    50202fce:	2781                	sext.w	a5,a5
    50202fd0:	f8e7e0e3          	bltu	a5,a4,50202f50 <mini_itoa+0x160>
    50202fd4:	fd842783          	lw	a5,-40(s0)
    50202fd8:	853e                	mv	a0,a5
    50202fda:	6426                	ld	s0,72(sp)
    50202fdc:	6161                	addi	sp,sp,80
    50202fde:	8082                	ret

0000000050202fe0 <_putc>:
    50202fe0:	1101                	addi	sp,sp,-32
    50202fe2:	ec22                	sd	s0,24(sp)
    50202fe4:	1000                	addi	s0,sp,32
    50202fe6:	87aa                	mv	a5,a0
    50202fe8:	feb43023          	sd	a1,-32(s0)
    50202fec:	fef42623          	sw	a5,-20(s0)
    50202ff0:	fe043783          	ld	a5,-32(s0)
    50202ff4:	6798                	ld	a4,8(a5)
    50202ff6:	fe043783          	ld	a5,-32(s0)
    50202ffa:	639c                	ld	a5,0(a5)
    50202ffc:	40f707b3          	sub	a5,a4,a5
    50203000:	2781                	sext.w	a5,a5
    50203002:	2785                	addiw	a5,a5,1
    50203004:	0007871b          	sext.w	a4,a5
    50203008:	fe043783          	ld	a5,-32(s0)
    5020300c:	4b9c                	lw	a5,16(a5)
    5020300e:	00f76463          	bltu	a4,a5,50203016 <_putc+0x36>
    50203012:	4781                	li	a5,0
    50203014:	a02d                	j	5020303e <_putc+0x5e>
    50203016:	fe043783          	ld	a5,-32(s0)
    5020301a:	679c                	ld	a5,8(a5)
    5020301c:	00178693          	addi	a3,a5,1
    50203020:	fe043703          	ld	a4,-32(s0)
    50203024:	e714                	sd	a3,8(a4)
    50203026:	fec42703          	lw	a4,-20(s0)
    5020302a:	0ff77713          	andi	a4,a4,255
    5020302e:	00e78023          	sb	a4,0(a5)
    50203032:	fe043783          	ld	a5,-32(s0)
    50203036:	679c                	ld	a5,8(a5)
    50203038:	00078023          	sb	zero,0(a5)
    5020303c:	4785                	li	a5,1
    5020303e:	853e                	mv	a0,a5
    50203040:	6462                	ld	s0,24(sp)
    50203042:	6105                	addi	sp,sp,32
    50203044:	8082                	ret

0000000050203046 <_puts>:
    50203046:	7139                	addi	sp,sp,-64
    50203048:	fc22                	sd	s0,56(sp)
    5020304a:	0080                	addi	s0,sp,64
    5020304c:	fca43c23          	sd	a0,-40(s0)
    50203050:	87ae                	mv	a5,a1
    50203052:	fcc43423          	sd	a2,-56(s0)
    50203056:	fcf42a23          	sw	a5,-44(s0)
    5020305a:	fc843783          	ld	a5,-56(s0)
    5020305e:	4b9c                	lw	a5,16(a5)
    50203060:	02079713          	slli	a4,a5,0x20
    50203064:	9301                	srli	a4,a4,0x20
    50203066:	fc843783          	ld	a5,-56(s0)
    5020306a:	6794                	ld	a3,8(a5)
    5020306c:	fc843783          	ld	a5,-56(s0)
    50203070:	639c                	ld	a5,0(a5)
    50203072:	40f687b3          	sub	a5,a3,a5
    50203076:	8f1d                	sub	a4,a4,a5
    50203078:	fd446783          	lwu	a5,-44(s0)
    5020307c:	02e7c463          	blt	a5,a4,502030a4 <_puts+0x5e>
    50203080:	fc843783          	ld	a5,-56(s0)
    50203084:	4b98                	lw	a4,16(a5)
    50203086:	fc843783          	ld	a5,-56(s0)
    5020308a:	6794                	ld	a3,8(a5)
    5020308c:	fc843783          	ld	a5,-56(s0)
    50203090:	639c                	ld	a5,0(a5)
    50203092:	40f687b3          	sub	a5,a3,a5
    50203096:	2781                	sext.w	a5,a5
    50203098:	40f707bb          	subw	a5,a4,a5
    5020309c:	2781                	sext.w	a5,a5
    5020309e:	37fd                	addiw	a5,a5,-1
    502030a0:	fcf42a23          	sw	a5,-44(s0)
    502030a4:	fe042623          	sw	zero,-20(s0)
    502030a8:	a03d                	j	502030d6 <_puts+0x90>
    502030aa:	fec46783          	lwu	a5,-20(s0)
    502030ae:	fd843703          	ld	a4,-40(s0)
    502030b2:	973e                	add	a4,a4,a5
    502030b4:	fc843783          	ld	a5,-56(s0)
    502030b8:	679c                	ld	a5,8(a5)
    502030ba:	00178613          	addi	a2,a5,1
    502030be:	fc843683          	ld	a3,-56(s0)
    502030c2:	e690                	sd	a2,8(a3)
    502030c4:	00074703          	lbu	a4,0(a4)
    502030c8:	00e78023          	sb	a4,0(a5)
    502030cc:	fec42783          	lw	a5,-20(s0)
    502030d0:	2785                	addiw	a5,a5,1
    502030d2:	fef42623          	sw	a5,-20(s0)
    502030d6:	fec42703          	lw	a4,-20(s0)
    502030da:	fd442783          	lw	a5,-44(s0)
    502030de:	2701                	sext.w	a4,a4
    502030e0:	2781                	sext.w	a5,a5
    502030e2:	fcf764e3          	bltu	a4,a5,502030aa <_puts+0x64>
    502030e6:	fc843783          	ld	a5,-56(s0)
    502030ea:	679c                	ld	a5,8(a5)
    502030ec:	00078023          	sb	zero,0(a5)
    502030f0:	fd442783          	lw	a5,-44(s0)
    502030f4:	853e                	mv	a0,a5
    502030f6:	7462                	ld	s0,56(sp)
    502030f8:	6121                	addi	sp,sp,64
    502030fa:	8082                	ret

00000000502030fc <mini_vsnprintf>:
    502030fc:	7119                	addi	sp,sp,-128
    502030fe:	fc86                	sd	ra,120(sp)
    50203100:	f8a2                	sd	s0,112(sp)
    50203102:	0100                	addi	s0,sp,128
    50203104:	f8a43c23          	sd	a0,-104(s0)
    50203108:	87ae                	mv	a5,a1
    5020310a:	f8c43423          	sd	a2,-120(s0)
    5020310e:	f8d43023          	sd	a3,-128(s0)
    50203112:	f8f42a23          	sw	a5,-108(s0)
    50203116:	f9843783          	ld	a5,-104(s0)
    5020311a:	fcf43023          	sd	a5,-64(s0)
    5020311e:	f9843783          	ld	a5,-104(s0)
    50203122:	fcf43423          	sd	a5,-56(s0)
    50203126:	f9442783          	lw	a5,-108(s0)
    5020312a:	fcf42823          	sw	a5,-48(s0)
    5020312e:	a4f9                	j	502033fc <mini_vsnprintf+0x300>
    50203130:	fc843703          	ld	a4,-56(s0)
    50203134:	fc043783          	ld	a5,-64(s0)
    50203138:	40f707b3          	sub	a5,a4,a5
    5020313c:	2781                	sext.w	a5,a5
    5020313e:	2785                	addiw	a5,a5,1
    50203140:	0007871b          	sext.w	a4,a5
    50203144:	fd042783          	lw	a5,-48(s0)
    50203148:	2cf77b63          	bgeu	a4,a5,5020341e <mini_vsnprintf+0x322>
    5020314c:	fef44783          	lbu	a5,-17(s0)
    50203150:	0ff7f713          	andi	a4,a5,255
    50203154:	02500793          	li	a5,37
    50203158:	00f70c63          	beq	a4,a5,50203170 <mini_vsnprintf+0x74>
    5020315c:	fef44783          	lbu	a5,-17(s0)
    50203160:	2781                	sext.w	a5,a5
    50203162:	fc040713          	addi	a4,s0,-64
    50203166:	85ba                	mv	a1,a4
    50203168:	853e                	mv	a0,a5
    5020316a:	e77ff0ef          	jal	ra,50202fe0 <_putc>
    5020316e:	a479                	j	502033fc <mini_vsnprintf+0x300>
    50203170:	fe040723          	sb	zero,-18(s0)
    50203174:	fe042423          	sw	zero,-24(s0)
    50203178:	f8843783          	ld	a5,-120(s0)
    5020317c:	00178713          	addi	a4,a5,1
    50203180:	f8e43423          	sd	a4,-120(s0)
    50203184:	0007c783          	lbu	a5,0(a5)
    50203188:	fef407a3          	sb	a5,-17(s0)
    5020318c:	fef44783          	lbu	a5,-17(s0)
    50203190:	0ff7f713          	andi	a4,a5,255
    50203194:	03000793          	li	a5,48
    50203198:	06f71b63          	bne	a4,a5,5020320e <mini_vsnprintf+0x112>
    5020319c:	a891                	j	502031f0 <mini_vsnprintf+0xf4>
    5020319e:	fef44783          	lbu	a5,-17(s0)
    502031a2:	0ff7f793          	andi	a5,a5,255
    502031a6:	26078e63          	beqz	a5,50203422 <mini_vsnprintf+0x326>
    502031aa:	fef44783          	lbu	a5,-17(s0)
    502031ae:	0ff7f713          	andi	a4,a5,255
    502031b2:	02f00793          	li	a5,47
    502031b6:	04e7fc63          	bgeu	a5,a4,5020320e <mini_vsnprintf+0x112>
    502031ba:	fef44783          	lbu	a5,-17(s0)
    502031be:	0ff7f713          	andi	a4,a5,255
    502031c2:	03900793          	li	a5,57
    502031c6:	04e7e463          	bltu	a5,a4,5020320e <mini_vsnprintf+0x112>
    502031ca:	fee44703          	lbu	a4,-18(s0)
    502031ce:	87ba                	mv	a5,a4
    502031d0:	0027979b          	slliw	a5,a5,0x2
    502031d4:	9fb9                	addw	a5,a5,a4
    502031d6:	0017979b          	slliw	a5,a5,0x1
    502031da:	0ff7f793          	andi	a5,a5,255
    502031de:	fef44703          	lbu	a4,-17(s0)
    502031e2:	9fb9                	addw	a5,a5,a4
    502031e4:	0ff7f793          	andi	a5,a5,255
    502031e8:	fd07879b          	addiw	a5,a5,-48
    502031ec:	fef40723          	sb	a5,-18(s0)
    502031f0:	f8843783          	ld	a5,-120(s0)
    502031f4:	00178713          	addi	a4,a5,1
    502031f8:	f8e43423          	sd	a4,-120(s0)
    502031fc:	0007c783          	lbu	a5,0(a5)
    50203200:	fef407a3          	sb	a5,-17(s0)
    50203204:	fef44783          	lbu	a5,-17(s0)
    50203208:	0ff7f793          	andi	a5,a5,255
    5020320c:	fbc9                	bnez	a5,5020319e <mini_vsnprintf+0xa2>
    5020320e:	fef44783          	lbu	a5,-17(s0)
    50203212:	0ff7f713          	andi	a4,a5,255
    50203216:	06c00793          	li	a5,108
    5020321a:	00f71f63          	bne	a4,a5,50203238 <mini_vsnprintf+0x13c>
    5020321e:	4785                	li	a5,1
    50203220:	fef42423          	sw	a5,-24(s0)
    50203224:	f8843783          	ld	a5,-120(s0)
    50203228:	00178713          	addi	a4,a5,1
    5020322c:	f8e43423          	sd	a4,-120(s0)
    50203230:	0007c783          	lbu	a5,0(a5)
    50203234:	fef407a3          	sb	a5,-17(s0)
    50203238:	fef44783          	lbu	a5,-17(s0)
    5020323c:	2781                	sext.w	a5,a5
    5020323e:	1e078463          	beqz	a5,50203426 <mini_vsnprintf+0x32a>
    50203242:	873e                	mv	a4,a5
    50203244:	1a074263          	bltz	a4,502033e8 <mini_vsnprintf+0x2ec>
    50203248:	86be                	mv	a3,a5
    5020324a:	07800713          	li	a4,120
    5020324e:	18d74d63          	blt	a4,a3,502033e8 <mini_vsnprintf+0x2ec>
    50203252:	86be                	mv	a3,a5
    50203254:	05800713          	li	a4,88
    50203258:	18e6c863          	blt	a3,a4,502033e8 <mini_vsnprintf+0x2ec>
    5020325c:	fa87869b          	addiw	a3,a5,-88
    50203260:	0006871b          	sext.w	a4,a3
    50203264:	02000793          	li	a5,32
    50203268:	18e7e063          	bltu	a5,a4,502033e8 <mini_vsnprintf+0x2ec>
    5020326c:	02069793          	slli	a5,a3,0x20
    50203270:	9381                	srli	a5,a5,0x20
    50203272:	00279713          	slli	a4,a5,0x2
    50203276:	00001797          	auipc	a5,0x1
    5020327a:	19e78793          	addi	a5,a5,414 # 50204414 <__FUNCTION__.1220+0xa4>
    5020327e:	97ba                	add	a5,a5,a4
    50203280:	439c                	lw	a5,0(a5)
    50203282:	0007871b          	sext.w	a4,a5
    50203286:	00001797          	auipc	a5,0x1
    5020328a:	18e78793          	addi	a5,a5,398 # 50204414 <__FUNCTION__.1220+0xa4>
    5020328e:	97ba                	add	a5,a5,a4
    50203290:	8782                	jr	a5
    50203292:	4785                	li	a5,1
    50203294:	fef42423          	sw	a5,-24(s0)
    50203298:	a295                	j	502033fc <mini_vsnprintf+0x300>
    5020329a:	fe842783          	lw	a5,-24(s0)
    5020329e:	2781                	sext.w	a5,a5
    502032a0:	ef81                	bnez	a5,502032b8 <mini_vsnprintf+0x1bc>
    502032a2:	f8043783          	ld	a5,-128(s0)
    502032a6:	00878713          	addi	a4,a5,8
    502032aa:	f8e43023          	sd	a4,-128(s0)
    502032ae:	439c                	lw	a5,0(a5)
    502032b0:	02079513          	slli	a0,a5,0x20
    502032b4:	9101                	srli	a0,a0,0x20
    502032b6:	a809                	j	502032c8 <mini_vsnprintf+0x1cc>
    502032b8:	f8043783          	ld	a5,-128(s0)
    502032bc:	00878713          	addi	a4,a5,8
    502032c0:	f8e43023          	sd	a4,-128(s0)
    502032c4:	639c                	ld	a5,0(a5)
    502032c6:	853e                	mv	a0,a5
    502032c8:	fef44783          	lbu	a5,-17(s0)
    502032cc:	0007871b          	sext.w	a4,a5
    502032d0:	07500793          	li	a5,117
    502032d4:	40f707b3          	sub	a5,a4,a5
    502032d8:	0017b793          	seqz	a5,a5
    502032dc:	0ff7f793          	andi	a5,a5,255
    502032e0:	0007869b          	sext.w	a3,a5
    502032e4:	fee44783          	lbu	a5,-18(s0)
    502032e8:	2781                	sext.w	a5,a5
    502032ea:	fa840713          	addi	a4,s0,-88
    502032ee:	4601                	li	a2,0
    502032f0:	45a9                	li	a1,10
    502032f2:	affff0ef          	jal	ra,50202df0 <mini_itoa>
    502032f6:	87aa                	mv	a5,a0
    502032f8:	fcf42e23          	sw	a5,-36(s0)
    502032fc:	fc040693          	addi	a3,s0,-64
    50203300:	fdc42703          	lw	a4,-36(s0)
    50203304:	fa840793          	addi	a5,s0,-88
    50203308:	8636                	mv	a2,a3
    5020330a:	85ba                	mv	a1,a4
    5020330c:	853e                	mv	a0,a5
    5020330e:	d39ff0ef          	jal	ra,50203046 <_puts>
    50203312:	fe042423          	sw	zero,-24(s0)
    50203316:	a0dd                	j	502033fc <mini_vsnprintf+0x300>
    50203318:	fe842783          	lw	a5,-24(s0)
    5020331c:	2781                	sext.w	a5,a5
    5020331e:	ef81                	bnez	a5,50203336 <mini_vsnprintf+0x23a>
    50203320:	f8043783          	ld	a5,-128(s0)
    50203324:	00878713          	addi	a4,a5,8
    50203328:	f8e43023          	sd	a4,-128(s0)
    5020332c:	439c                	lw	a5,0(a5)
    5020332e:	02079513          	slli	a0,a5,0x20
    50203332:	9101                	srli	a0,a0,0x20
    50203334:	a809                	j	50203346 <mini_vsnprintf+0x24a>
    50203336:	f8043783          	ld	a5,-128(s0)
    5020333a:	00878713          	addi	a4,a5,8
    5020333e:	f8e43023          	sd	a4,-128(s0)
    50203342:	639c                	ld	a5,0(a5)
    50203344:	853e                	mv	a0,a5
    50203346:	fef44783          	lbu	a5,-17(s0)
    5020334a:	0007871b          	sext.w	a4,a5
    5020334e:	05800793          	li	a5,88
    50203352:	40f707b3          	sub	a5,a4,a5
    50203356:	0017b793          	seqz	a5,a5
    5020335a:	0ff7f793          	andi	a5,a5,255
    5020335e:	0007861b          	sext.w	a2,a5
    50203362:	fee44783          	lbu	a5,-18(s0)
    50203366:	2781                	sext.w	a5,a5
    50203368:	fa840713          	addi	a4,s0,-88
    5020336c:	4685                	li	a3,1
    5020336e:	45c1                	li	a1,16
    50203370:	a81ff0ef          	jal	ra,50202df0 <mini_itoa>
    50203374:	87aa                	mv	a5,a0
    50203376:	fcf42e23          	sw	a5,-36(s0)
    5020337a:	fc040693          	addi	a3,s0,-64
    5020337e:	fdc42703          	lw	a4,-36(s0)
    50203382:	fa840793          	addi	a5,s0,-88
    50203386:	8636                	mv	a2,a3
    50203388:	85ba                	mv	a1,a4
    5020338a:	853e                	mv	a0,a5
    5020338c:	cbbff0ef          	jal	ra,50203046 <_puts>
    50203390:	fe042423          	sw	zero,-24(s0)
    50203394:	a0a5                	j	502033fc <mini_vsnprintf+0x300>
    50203396:	f8043783          	ld	a5,-128(s0)
    5020339a:	00878713          	addi	a4,a5,8
    5020339e:	f8e43023          	sd	a4,-128(s0)
    502033a2:	439c                	lw	a5,0(a5)
    502033a4:	0ff7f793          	andi	a5,a5,255
    502033a8:	2781                	sext.w	a5,a5
    502033aa:	fc040713          	addi	a4,s0,-64
    502033ae:	85ba                	mv	a1,a4
    502033b0:	853e                	mv	a0,a5
    502033b2:	c2fff0ef          	jal	ra,50202fe0 <_putc>
    502033b6:	a099                	j	502033fc <mini_vsnprintf+0x300>
    502033b8:	f8043783          	ld	a5,-128(s0)
    502033bc:	00878713          	addi	a4,a5,8
    502033c0:	f8e43023          	sd	a4,-128(s0)
    502033c4:	639c                	ld	a5,0(a5)
    502033c6:	fef43023          	sd	a5,-32(s0)
    502033ca:	fe043503          	ld	a0,-32(s0)
    502033ce:	126000ef          	jal	ra,502034f4 <strlen>
    502033d2:	87aa                	mv	a5,a0
    502033d4:	2781                	sext.w	a5,a5
    502033d6:	fc040713          	addi	a4,s0,-64
    502033da:	863a                	mv	a2,a4
    502033dc:	85be                	mv	a1,a5
    502033de:	fe043503          	ld	a0,-32(s0)
    502033e2:	c65ff0ef          	jal	ra,50203046 <_puts>
    502033e6:	a819                	j	502033fc <mini_vsnprintf+0x300>
    502033e8:	fef44783          	lbu	a5,-17(s0)
    502033ec:	2781                	sext.w	a5,a5
    502033ee:	fc040713          	addi	a4,s0,-64
    502033f2:	85ba                	mv	a1,a4
    502033f4:	853e                	mv	a0,a5
    502033f6:	bebff0ef          	jal	ra,50202fe0 <_putc>
    502033fa:	0001                	nop
    502033fc:	f8843783          	ld	a5,-120(s0)
    50203400:	00178713          	addi	a4,a5,1
    50203404:	f8e43423          	sd	a4,-120(s0)
    50203408:	0007c783          	lbu	a5,0(a5)
    5020340c:	fef407a3          	sb	a5,-17(s0)
    50203410:	fef44783          	lbu	a5,-17(s0)
    50203414:	0ff7f793          	andi	a5,a5,255
    50203418:	d0079ce3          	bnez	a5,50203130 <mini_vsnprintf+0x34>
    5020341c:	a031                	j	50203428 <mini_vsnprintf+0x32c>
    5020341e:	0001                	nop
    50203420:	a021                	j	50203428 <mini_vsnprintf+0x32c>
    50203422:	0001                	nop
    50203424:	a011                	j	50203428 <mini_vsnprintf+0x32c>
    50203426:	0001                	nop
    50203428:	fc843703          	ld	a4,-56(s0)
    5020342c:	fc043783          	ld	a5,-64(s0)
    50203430:	40f707b3          	sub	a5,a4,a5
    50203434:	2781                	sext.w	a5,a5
    50203436:	853e                	mv	a0,a5
    50203438:	70e6                	ld	ra,120(sp)
    5020343a:	7446                	ld	s0,112(sp)
    5020343c:	6109                	addi	sp,sp,128
    5020343e:	8082                	ret

0000000050203440 <vprintf>:
    50203440:	7169                	addi	sp,sp,-304
    50203442:	f606                	sd	ra,296(sp)
    50203444:	f222                	sd	s0,288(sp)
    50203446:	1a00                	addi	s0,sp,304
    50203448:	eca43c23          	sd	a0,-296(s0)
    5020344c:	ecb43823          	sd	a1,-304(s0)
    50203450:	ed043783          	ld	a5,-304(s0)
    50203454:	fef43023          	sd	a5,-32(s0)
    50203458:	fe043703          	ld	a4,-32(s0)
    5020345c:	ee040793          	addi	a5,s0,-288
    50203460:	86ba                	mv	a3,a4
    50203462:	ed843603          	ld	a2,-296(s0)
    50203466:	10000593          	li	a1,256
    5020346a:	853e                	mv	a0,a5
    5020346c:	c91ff0ef          	jal	ra,502030fc <mini_vsnprintf>
    50203470:	87aa                	mv	a5,a0
    50203472:	fef42623          	sw	a5,-20(s0)
    50203476:	fec42783          	lw	a5,-20(s0)
    5020347a:	ff040713          	addi	a4,s0,-16
    5020347e:	97ba                	add	a5,a5,a4
    50203480:	ee078823          	sb	zero,-272(a5)
    50203484:	ee040793          	addi	a5,s0,-288
    50203488:	853e                	mv	a0,a5
    5020348a:	3b0000ef          	jal	ra,5020383a <sys_write>
    5020348e:	fec42783          	lw	a5,-20(s0)
    50203492:	853e                	mv	a0,a5
    50203494:	70b2                	ld	ra,296(sp)
    50203496:	7412                	ld	s0,288(sp)
    50203498:	6155                	addi	sp,sp,304
    5020349a:	8082                	ret

000000005020349c <printf>:
    5020349c:	7159                	addi	sp,sp,-112
    5020349e:	f406                	sd	ra,40(sp)
    502034a0:	f022                	sd	s0,32(sp)
    502034a2:	1800                	addi	s0,sp,48
    502034a4:	fca43c23          	sd	a0,-40(s0)
    502034a8:	e40c                	sd	a1,8(s0)
    502034aa:	e810                	sd	a2,16(s0)
    502034ac:	ec14                	sd	a3,24(s0)
    502034ae:	f018                	sd	a4,32(s0)
    502034b0:	f41c                	sd	a5,40(s0)
    502034b2:	03043823          	sd	a6,48(s0)
    502034b6:	03143c23          	sd	a7,56(s0)
    502034ba:	fe042623          	sw	zero,-20(s0)
    502034be:	04040793          	addi	a5,s0,64
    502034c2:	fcf43823          	sd	a5,-48(s0)
    502034c6:	fd043783          	ld	a5,-48(s0)
    502034ca:	fc878793          	addi	a5,a5,-56
    502034ce:	fef43023          	sd	a5,-32(s0)
    502034d2:	fe043783          	ld	a5,-32(s0)
    502034d6:	85be                	mv	a1,a5
    502034d8:	fd843503          	ld	a0,-40(s0)
    502034dc:	f65ff0ef          	jal	ra,50203440 <vprintf>
    502034e0:	87aa                	mv	a5,a0
    502034e2:	fef42623          	sw	a5,-20(s0)
    502034e6:	fec42783          	lw	a5,-20(s0)
    502034ea:	853e                	mv	a0,a5
    502034ec:	70a2                	ld	ra,40(sp)
    502034ee:	7402                	ld	s0,32(sp)
    502034f0:	6165                	addi	sp,sp,112
    502034f2:	8082                	ret

00000000502034f4 <strlen>:
    502034f4:	7179                	addi	sp,sp,-48
    502034f6:	f422                	sd	s0,40(sp)
    502034f8:	1800                	addi	s0,sp,48
    502034fa:	fca43c23          	sd	a0,-40(s0)
    502034fe:	fe042623          	sw	zero,-20(s0)
    50203502:	a031                	j	5020350e <strlen+0x1a>
    50203504:	fec42783          	lw	a5,-20(s0)
    50203508:	2785                	addiw	a5,a5,1
    5020350a:	fef42623          	sw	a5,-20(s0)
    5020350e:	fec42783          	lw	a5,-20(s0)
    50203512:	fd843703          	ld	a4,-40(s0)
    50203516:	97ba                	add	a5,a5,a4
    50203518:	0007c783          	lbu	a5,0(a5)
    5020351c:	f7e5                	bnez	a5,50203504 <strlen+0x10>
    5020351e:	fec42783          	lw	a5,-20(s0)
    50203522:	853e                	mv	a0,a5
    50203524:	7422                	ld	s0,40(sp)
    50203526:	6145                	addi	sp,sp,48
    50203528:	8082                	ret

000000005020352a <memcpy>:
    5020352a:	7179                	addi	sp,sp,-48
    5020352c:	f422                	sd	s0,40(sp)
    5020352e:	1800                	addi	s0,sp,48
    50203530:	fea43423          	sd	a0,-24(s0)
    50203534:	feb43023          	sd	a1,-32(s0)
    50203538:	87b2                	mv	a5,a2
    5020353a:	fcf42e23          	sw	a5,-36(s0)
    5020353e:	a035                	j	5020356a <memcpy+0x40>
    50203540:	fe043703          	ld	a4,-32(s0)
    50203544:	00170793          	addi	a5,a4,1
    50203548:	fef43023          	sd	a5,-32(s0)
    5020354c:	fe843783          	ld	a5,-24(s0)
    50203550:	00178693          	addi	a3,a5,1
    50203554:	fed43423          	sd	a3,-24(s0)
    50203558:	00074703          	lbu	a4,0(a4)
    5020355c:	00e78023          	sb	a4,0(a5)
    50203560:	fdc42783          	lw	a5,-36(s0)
    50203564:	37fd                	addiw	a5,a5,-1
    50203566:	fcf42e23          	sw	a5,-36(s0)
    5020356a:	fdc42783          	lw	a5,-36(s0)
    5020356e:	2781                	sext.w	a5,a5
    50203570:	fbe1                	bnez	a5,50203540 <memcpy+0x16>
    50203572:	0001                	nop
    50203574:	0001                	nop
    50203576:	7422                	ld	s0,40(sp)
    50203578:	6145                	addi	sp,sp,48
    5020357a:	8082                	ret

000000005020357c <memset>:
    5020357c:	7179                	addi	sp,sp,-48
    5020357e:	f422                	sd	s0,40(sp)
    50203580:	1800                	addi	s0,sp,48
    50203582:	fca43c23          	sd	a0,-40(s0)
    50203586:	87ae                	mv	a5,a1
    50203588:	8732                	mv	a4,a2
    5020358a:	fcf40ba3          	sb	a5,-41(s0)
    5020358e:	87ba                	mv	a5,a4
    50203590:	fcf42823          	sw	a5,-48(s0)
    50203594:	fd843783          	ld	a5,-40(s0)
    50203598:	fef43423          	sd	a5,-24(s0)
    5020359c:	a005                	j	502035bc <memset+0x40>
    5020359e:	fe843783          	ld	a5,-24(s0)
    502035a2:	00178713          	addi	a4,a5,1
    502035a6:	fee43423          	sd	a4,-24(s0)
    502035aa:	fd744703          	lbu	a4,-41(s0)
    502035ae:	00e78023          	sb	a4,0(a5)
    502035b2:	fd042783          	lw	a5,-48(s0)
    502035b6:	37fd                	addiw	a5,a5,-1
    502035b8:	fcf42823          	sw	a5,-48(s0)
    502035bc:	fd042783          	lw	a5,-48(s0)
    502035c0:	2781                	sext.w	a5,a5
    502035c2:	fff1                	bnez	a5,5020359e <memset+0x22>
    502035c4:	0001                	nop
    502035c6:	0001                	nop
    502035c8:	7422                	ld	s0,40(sp)
    502035ca:	6145                	addi	sp,sp,48
    502035cc:	8082                	ret

00000000502035ce <bzero>:
    502035ce:	1101                	addi	sp,sp,-32
    502035d0:	ec06                	sd	ra,24(sp)
    502035d2:	e822                	sd	s0,16(sp)
    502035d4:	1000                	addi	s0,sp,32
    502035d6:	fea43423          	sd	a0,-24(s0)
    502035da:	87ae                	mv	a5,a1
    502035dc:	fef42223          	sw	a5,-28(s0)
    502035e0:	fe442783          	lw	a5,-28(s0)
    502035e4:	863e                	mv	a2,a5
    502035e6:	4581                	li	a1,0
    502035e8:	fe843503          	ld	a0,-24(s0)
    502035ec:	f91ff0ef          	jal	ra,5020357c <memset>
    502035f0:	0001                	nop
    502035f2:	60e2                	ld	ra,24(sp)
    502035f4:	6442                	ld	s0,16(sp)
    502035f6:	6105                	addi	sp,sp,32
    502035f8:	8082                	ret

00000000502035fa <strcmp>:
    502035fa:	1101                	addi	sp,sp,-32
    502035fc:	ec22                	sd	s0,24(sp)
    502035fe:	1000                	addi	s0,sp,32
    50203600:	fea43423          	sd	a0,-24(s0)
    50203604:	feb43023          	sd	a1,-32(s0)
    50203608:	a0a1                	j	50203650 <strcmp+0x56>
    5020360a:	fe843783          	ld	a5,-24(s0)
    5020360e:	0007c703          	lbu	a4,0(a5)
    50203612:	fe043783          	ld	a5,-32(s0)
    50203616:	0007c783          	lbu	a5,0(a5)
    5020361a:	02f70163          	beq	a4,a5,5020363c <strcmp+0x42>
    5020361e:	fe843783          	ld	a5,-24(s0)
    50203622:	0007c783          	lbu	a5,0(a5)
    50203626:	0007871b          	sext.w	a4,a5
    5020362a:	fe043783          	ld	a5,-32(s0)
    5020362e:	0007c783          	lbu	a5,0(a5)
    50203632:	2781                	sext.w	a5,a5
    50203634:	40f707bb          	subw	a5,a4,a5
    50203638:	2781                	sext.w	a5,a5
    5020363a:	a099                	j	50203680 <strcmp+0x86>
    5020363c:	fe843783          	ld	a5,-24(s0)
    50203640:	0785                	addi	a5,a5,1
    50203642:	fef43423          	sd	a5,-24(s0)
    50203646:	fe043783          	ld	a5,-32(s0)
    5020364a:	0785                	addi	a5,a5,1
    5020364c:	fef43023          	sd	a5,-32(s0)
    50203650:	fe843783          	ld	a5,-24(s0)
    50203654:	0007c783          	lbu	a5,0(a5)
    50203658:	c791                	beqz	a5,50203664 <strcmp+0x6a>
    5020365a:	fe043783          	ld	a5,-32(s0)
    5020365e:	0007c783          	lbu	a5,0(a5)
    50203662:	f7c5                	bnez	a5,5020360a <strcmp+0x10>
    50203664:	fe843783          	ld	a5,-24(s0)
    50203668:	0007c783          	lbu	a5,0(a5)
    5020366c:	0007871b          	sext.w	a4,a5
    50203670:	fe043783          	ld	a5,-32(s0)
    50203674:	0007c783          	lbu	a5,0(a5)
    50203678:	2781                	sext.w	a5,a5
    5020367a:	40f707bb          	subw	a5,a4,a5
    5020367e:	2781                	sext.w	a5,a5
    50203680:	853e                	mv	a0,a5
    50203682:	6462                	ld	s0,24(sp)
    50203684:	6105                	addi	sp,sp,32
    50203686:	8082                	ret

0000000050203688 <strcpy>:
    50203688:	7179                	addi	sp,sp,-48
    5020368a:	f422                	sd	s0,40(sp)
    5020368c:	1800                	addi	s0,sp,48
    5020368e:	fca43c23          	sd	a0,-40(s0)
    50203692:	fcb43823          	sd	a1,-48(s0)
    50203696:	fd843783          	ld	a5,-40(s0)
    5020369a:	fef43423          	sd	a5,-24(s0)
    5020369e:	a00d                	j	502036c0 <strcpy+0x38>
    502036a0:	fd043703          	ld	a4,-48(s0)
    502036a4:	00170793          	addi	a5,a4,1
    502036a8:	fcf43823          	sd	a5,-48(s0)
    502036ac:	fd843783          	ld	a5,-40(s0)
    502036b0:	00178693          	addi	a3,a5,1
    502036b4:	fcd43c23          	sd	a3,-40(s0)
    502036b8:	00074703          	lbu	a4,0(a4)
    502036bc:	00e78023          	sb	a4,0(a5)
    502036c0:	fd043783          	ld	a5,-48(s0)
    502036c4:	0007c783          	lbu	a5,0(a5)
    502036c8:	ffe1                	bnez	a5,502036a0 <strcpy+0x18>
    502036ca:	fd843783          	ld	a5,-40(s0)
    502036ce:	00078023          	sb	zero,0(a5)
    502036d2:	fe843783          	ld	a5,-24(s0)
    502036d6:	853e                	mv	a0,a5
    502036d8:	7422                	ld	s0,40(sp)
    502036da:	6145                	addi	sp,sp,48
    502036dc:	8082                	ret

00000000502036de <strcat>:
    502036de:	7179                	addi	sp,sp,-48
    502036e0:	f422                	sd	s0,40(sp)
    502036e2:	1800                	addi	s0,sp,48
    502036e4:	fca43c23          	sd	a0,-40(s0)
    502036e8:	fcb43823          	sd	a1,-48(s0)
    502036ec:	fd843783          	ld	a5,-40(s0)
    502036f0:	fef43423          	sd	a5,-24(s0)
    502036f4:	a031                	j	50203700 <strcat+0x22>
    502036f6:	fd843783          	ld	a5,-40(s0)
    502036fa:	0785                	addi	a5,a5,1
    502036fc:	fcf43c23          	sd	a5,-40(s0)
    50203700:	fd843783          	ld	a5,-40(s0)
    50203704:	0007c783          	lbu	a5,0(a5)
    50203708:	f7fd                	bnez	a5,502036f6 <strcat+0x18>
    5020370a:	a00d                	j	5020372c <strcat+0x4e>
    5020370c:	fd043703          	ld	a4,-48(s0)
    50203710:	00170793          	addi	a5,a4,1
    50203714:	fcf43823          	sd	a5,-48(s0)
    50203718:	fd843783          	ld	a5,-40(s0)
    5020371c:	00178693          	addi	a3,a5,1
    50203720:	fcd43c23          	sd	a3,-40(s0)
    50203724:	00074703          	lbu	a4,0(a4)
    50203728:	00e78023          	sb	a4,0(a5)
    5020372c:	fd043783          	ld	a5,-48(s0)
    50203730:	0007c783          	lbu	a5,0(a5)
    50203734:	ffe1                	bnez	a5,5020370c <strcat+0x2e>
    50203736:	fd843783          	ld	a5,-40(s0)
    5020373a:	00078023          	sb	zero,0(a5)
    5020373e:	fe843783          	ld	a5,-24(s0)
    50203742:	853e                	mv	a0,a5
    50203744:	7422                	ld	s0,40(sp)
    50203746:	6145                	addi	sp,sp,48
    50203748:	8082                	ret

000000005020374a <mthread_spin_init>:
    5020374a:	1101                	addi	sp,sp,-32
    5020374c:	ec22                	sd	s0,24(sp)
    5020374e:	1000                	addi	s0,sp,32
    50203750:	fea43423          	sd	a0,-24(s0)
    50203754:	4781                	li	a5,0
    50203756:	853e                	mv	a0,a5
    50203758:	6462                	ld	s0,24(sp)
    5020375a:	6105                	addi	sp,sp,32
    5020375c:	8082                	ret

000000005020375e <mthread_spin_destroy>:
    5020375e:	1101                	addi	sp,sp,-32
    50203760:	ec22                	sd	s0,24(sp)
    50203762:	1000                	addi	s0,sp,32
    50203764:	fea43423          	sd	a0,-24(s0)
    50203768:	4781                	li	a5,0
    5020376a:	853e                	mv	a0,a5
    5020376c:	6462                	ld	s0,24(sp)
    5020376e:	6105                	addi	sp,sp,32
    50203770:	8082                	ret

0000000050203772 <mthread_spin_trylock>:
    50203772:	1101                	addi	sp,sp,-32
    50203774:	ec22                	sd	s0,24(sp)
    50203776:	1000                	addi	s0,sp,32
    50203778:	fea43423          	sd	a0,-24(s0)
    5020377c:	0001                	nop
    5020377e:	853e                	mv	a0,a5
    50203780:	6462                	ld	s0,24(sp)
    50203782:	6105                	addi	sp,sp,32
    50203784:	8082                	ret

0000000050203786 <mthread_spin_lock>:
    50203786:	1101                	addi	sp,sp,-32
    50203788:	ec22                	sd	s0,24(sp)
    5020378a:	1000                	addi	s0,sp,32
    5020378c:	fea43423          	sd	a0,-24(s0)
    50203790:	0001                	nop
    50203792:	853e                	mv	a0,a5
    50203794:	6462                	ld	s0,24(sp)
    50203796:	6105                	addi	sp,sp,32
    50203798:	8082                	ret

000000005020379a <mthread_spin_unlock>:
    5020379a:	1101                	addi	sp,sp,-32
    5020379c:	ec22                	sd	s0,24(sp)
    5020379e:	1000                	addi	s0,sp,32
    502037a0:	fea43423          	sd	a0,-24(s0)
    502037a4:	4781                	li	a5,0
    502037a6:	853e                	mv	a0,a5
    502037a8:	6462                	ld	s0,24(sp)
    502037aa:	6105                	addi	sp,sp,32
    502037ac:	8082                	ret

00000000502037ae <mthread_mutex_init>:
    502037ae:	1101                	addi	sp,sp,-32
    502037b0:	ec22                	sd	s0,24(sp)
    502037b2:	1000                	addi	s0,sp,32
    502037b4:	fea43423          	sd	a0,-24(s0)
    502037b8:	4781                	li	a5,0
    502037ba:	853e                	mv	a0,a5
    502037bc:	6462                	ld	s0,24(sp)
    502037be:	6105                	addi	sp,sp,32
    502037c0:	8082                	ret

00000000502037c2 <mthread_mutex_destroy>:
    502037c2:	1101                	addi	sp,sp,-32
    502037c4:	ec22                	sd	s0,24(sp)
    502037c6:	1000                	addi	s0,sp,32
    502037c8:	fea43423          	sd	a0,-24(s0)
    502037cc:	4781                	li	a5,0
    502037ce:	853e                	mv	a0,a5
    502037d0:	6462                	ld	s0,24(sp)
    502037d2:	6105                	addi	sp,sp,32
    502037d4:	8082                	ret

00000000502037d6 <mthread_mutex_trylock>:
    502037d6:	1101                	addi	sp,sp,-32
    502037d8:	ec22                	sd	s0,24(sp)
    502037da:	1000                	addi	s0,sp,32
    502037dc:	fea43423          	sd	a0,-24(s0)
    502037e0:	4781                	li	a5,0
    502037e2:	853e                	mv	a0,a5
    502037e4:	6462                	ld	s0,24(sp)
    502037e6:	6105                	addi	sp,sp,32
    502037e8:	8082                	ret

00000000502037ea <mthread_mutex_lock>:
    502037ea:	1101                	addi	sp,sp,-32
    502037ec:	ec22                	sd	s0,24(sp)
    502037ee:	1000                	addi	s0,sp,32
    502037f0:	fea43423          	sd	a0,-24(s0)
    502037f4:	4781                	li	a5,0
    502037f6:	853e                	mv	a0,a5
    502037f8:	6462                	ld	s0,24(sp)
    502037fa:	6105                	addi	sp,sp,32
    502037fc:	8082                	ret

00000000502037fe <mthread_mutex_unlock>:
    502037fe:	1101                	addi	sp,sp,-32
    50203800:	ec22                	sd	s0,24(sp)
    50203802:	1000                	addi	s0,sp,32
    50203804:	fea43423          	sd	a0,-24(s0)
    50203808:	4781                	li	a5,0
    5020380a:	853e                	mv	a0,a5
    5020380c:	6462                	ld	s0,24(sp)
    5020380e:	6105                	addi	sp,sp,32
    50203810:	8082                	ret

0000000050203812 <sys_sleep>:
    50203812:	1101                	addi	sp,sp,-32
    50203814:	ec06                	sd	ra,24(sp)
    50203816:	e822                	sd	s0,16(sp)
    50203818:	1000                	addi	s0,sp,32
    5020381a:	87aa                	mv	a5,a0
    5020381c:	fef42623          	sw	a5,-20(s0)
    50203820:	fec46783          	lwu	a5,-20(s0)
    50203824:	4681                	li	a3,0
    50203826:	4601                	li	a2,0
    50203828:	85be                	mv	a1,a5
    5020382a:	4509                	li	a0,2
    5020382c:	124000ef          	jal	ra,50203950 <invoke_syscall>
    50203830:	0001                	nop
    50203832:	60e2                	ld	ra,24(sp)
    50203834:	6442                	ld	s0,16(sp)
    50203836:	6105                	addi	sp,sp,32
    50203838:	8082                	ret

000000005020383a <sys_write>:
    5020383a:	1101                	addi	sp,sp,-32
    5020383c:	ec06                	sd	ra,24(sp)
    5020383e:	e822                	sd	s0,16(sp)
    50203840:	1000                	addi	s0,sp,32
    50203842:	fea43423          	sd	a0,-24(s0)
    50203846:	fe843783          	ld	a5,-24(s0)
    5020384a:	4681                	li	a3,0
    5020384c:	4601                	li	a2,0
    5020384e:	85be                	mv	a1,a5
    50203850:	4551                	li	a0,20
    50203852:	0fe000ef          	jal	ra,50203950 <invoke_syscall>
    50203856:	0001                	nop
    50203858:	60e2                	ld	ra,24(sp)
    5020385a:	6442                	ld	s0,16(sp)
    5020385c:	6105                	addi	sp,sp,32
    5020385e:	8082                	ret

0000000050203860 <sys_reflush>:
    50203860:	1141                	addi	sp,sp,-16
    50203862:	e406                	sd	ra,8(sp)
    50203864:	e022                	sd	s0,0(sp)
    50203866:	0800                	addi	s0,sp,16
    50203868:	4681                	li	a3,0
    5020386a:	4601                	li	a2,0
    5020386c:	4581                	li	a1,0
    5020386e:	455d                	li	a0,23
    50203870:	0e0000ef          	jal	ra,50203950 <invoke_syscall>
    50203874:	0001                	nop
    50203876:	60a2                	ld	ra,8(sp)
    50203878:	6402                	ld	s0,0(sp)
    5020387a:	0141                	addi	sp,sp,16
    5020387c:	8082                	ret

000000005020387e <sys_move_cursor>:
    5020387e:	1101                	addi	sp,sp,-32
    50203880:	ec06                	sd	ra,24(sp)
    50203882:	e822                	sd	s0,16(sp)
    50203884:	1000                	addi	s0,sp,32
    50203886:	87aa                	mv	a5,a0
    50203888:	872e                	mv	a4,a1
    5020388a:	fef42623          	sw	a5,-20(s0)
    5020388e:	87ba                	mv	a5,a4
    50203890:	fef42423          	sw	a5,-24(s0)
    50203894:	fec42783          	lw	a5,-20(s0)
    50203898:	fe842703          	lw	a4,-24(s0)
    5020389c:	4681                	li	a3,0
    5020389e:	863a                	mv	a2,a4
    502038a0:	85be                	mv	a1,a5
    502038a2:	4559                	li	a0,22
    502038a4:	0ac000ef          	jal	ra,50203950 <invoke_syscall>
    502038a8:	0001                	nop
    502038aa:	60e2                	ld	ra,24(sp)
    502038ac:	6442                	ld	s0,16(sp)
    502038ae:	6105                	addi	sp,sp,32
    502038b0:	8082                	ret

00000000502038b2 <sys_futex_wait>:
    502038b2:	1101                	addi	sp,sp,-32
    502038b4:	ec06                	sd	ra,24(sp)
    502038b6:	e822                	sd	s0,16(sp)
    502038b8:	1000                	addi	s0,sp,32
    502038ba:	fea43423          	sd	a0,-24(s0)
    502038be:	feb43023          	sd	a1,-32(s0)
    502038c2:	fe843783          	ld	a5,-24(s0)
    502038c6:	fe043703          	ld	a4,-32(s0)
    502038ca:	4681                	li	a3,0
    502038cc:	863a                	mv	a2,a4
    502038ce:	85be                	mv	a1,a5
    502038d0:	4529                	li	a0,10
    502038d2:	07e000ef          	jal	ra,50203950 <invoke_syscall>
    502038d6:	0001                	nop
    502038d8:	60e2                	ld	ra,24(sp)
    502038da:	6442                	ld	s0,16(sp)
    502038dc:	6105                	addi	sp,sp,32
    502038de:	8082                	ret

00000000502038e0 <sys_futex_wakeup>:
    502038e0:	1101                	addi	sp,sp,-32
    502038e2:	ec06                	sd	ra,24(sp)
    502038e4:	e822                	sd	s0,16(sp)
    502038e6:	1000                	addi	s0,sp,32
    502038e8:	fea43423          	sd	a0,-24(s0)
    502038ec:	87ae                	mv	a5,a1
    502038ee:	fef42223          	sw	a5,-28(s0)
    502038f2:	fe843783          	ld	a5,-24(s0)
    502038f6:	fe442703          	lw	a4,-28(s0)
    502038fa:	4681                	li	a3,0
    502038fc:	863a                	mv	a2,a4
    502038fe:	85be                	mv	a1,a5
    50203900:	452d                	li	a0,11
    50203902:	04e000ef          	jal	ra,50203950 <invoke_syscall>
    50203906:	0001                	nop
    50203908:	60e2                	ld	ra,24(sp)
    5020390a:	6442                	ld	s0,16(sp)
    5020390c:	6105                	addi	sp,sp,32
    5020390e:	8082                	ret

0000000050203910 <sys_get_timebase>:
    50203910:	1141                	addi	sp,sp,-16
    50203912:	e406                	sd	ra,8(sp)
    50203914:	e022                	sd	s0,0(sp)
    50203916:	0800                	addi	s0,sp,16
    50203918:	4681                	li	a3,0
    5020391a:	4601                	li	a2,0
    5020391c:	4581                	li	a1,0
    5020391e:	4579                	li	a0,30
    50203920:	030000ef          	jal	ra,50203950 <invoke_syscall>
    50203924:	87aa                	mv	a5,a0
    50203926:	853e                	mv	a0,a5
    50203928:	60a2                	ld	ra,8(sp)
    5020392a:	6402                	ld	s0,0(sp)
    5020392c:	0141                	addi	sp,sp,16
    5020392e:	8082                	ret

0000000050203930 <sys_get_tick>:
    50203930:	1141                	addi	sp,sp,-16
    50203932:	e406                	sd	ra,8(sp)
    50203934:	e022                	sd	s0,0(sp)
    50203936:	0800                	addi	s0,sp,16
    50203938:	4681                	li	a3,0
    5020393a:	4601                	li	a2,0
    5020393c:	4581                	li	a1,0
    5020393e:	457d                	li	a0,31
    50203940:	010000ef          	jal	ra,50203950 <invoke_syscall>
    50203944:	87aa                	mv	a5,a0
    50203946:	853e                	mv	a0,a5
    50203948:	60a2                	ld	ra,8(sp)
    5020394a:	6402                	ld	s0,0(sp)
    5020394c:	0141                	addi	sp,sp,16
    5020394e:	8082                	ret

0000000050203950 <invoke_syscall>:
	...

0000000050203952 <clock>:
    50203952:	1141                	addi	sp,sp,-16
    50203954:	e406                	sd	ra,8(sp)
    50203956:	e022                	sd	s0,0(sp)
    50203958:	0800                	addi	s0,sp,16
    5020395a:	fd7ff0ef          	jal	ra,50203930 <sys_get_tick>
    5020395e:	87aa                	mv	a5,a0
    50203960:	853e                	mv	a0,a5
    50203962:	60a2                	ld	ra,8(sp)
    50203964:	6402                	ld	s0,0(sp)
    50203966:	0141                	addi	sp,sp,16
    50203968:	8082                	ret

000000005020396a <printk_task1>:
    5020396a:	1101                	addi	sp,sp,-32
    5020396c:	ec06                	sd	ra,24(sp)
    5020396e:	e822                	sd	s0,16(sp)
    50203970:	1000                	addi	s0,sp,32
    50203972:	4785                	li	a5,1
    50203974:	fef42423          	sw	a5,-24(s0)
    50203978:	fe042623          	sw	zero,-20(s0)
    5020397c:	fe842783          	lw	a5,-24(s0)
    50203980:	85be                	mv	a1,a5
    50203982:	4505                	li	a0,1
    50203984:	c27fd0ef          	jal	ra,502015aa <vt100_move_cursor>
    50203988:	fec42783          	lw	a5,-20(s0)
    5020398c:	85be                	mv	a1,a5
    5020398e:	00001517          	auipc	a0,0x1
    50203992:	b0a50513          	addi	a0,a0,-1270 # 50204498 <__FUNCTION__.1220+0x128>
    50203996:	c02ff0ef          	jal	ra,50202d98 <printk>
    5020399a:	f16fe0ef          	jal	ra,502020b0 <do_scheduler>
    5020399e:	fec42783          	lw	a5,-20(s0)
    502039a2:	2785                	addiw	a5,a5,1
    502039a4:	fef42623          	sw	a5,-20(s0)
    502039a8:	bfd1                	j	5020397c <printk_task1+0x12>

00000000502039aa <printk_task2>:
    502039aa:	1101                	addi	sp,sp,-32
    502039ac:	ec06                	sd	ra,24(sp)
    502039ae:	e822                	sd	s0,16(sp)
    502039b0:	1000                	addi	s0,sp,32
    502039b2:	4789                	li	a5,2
    502039b4:	fef42423          	sw	a5,-24(s0)
    502039b8:	fe042623          	sw	zero,-20(s0)
    502039bc:	fe842783          	lw	a5,-24(s0)
    502039c0:	85be                	mv	a1,a5
    502039c2:	4505                	li	a0,1
    502039c4:	be7fd0ef          	jal	ra,502015aa <vt100_move_cursor>
    502039c8:	fec42783          	lw	a5,-20(s0)
    502039cc:	85be                	mv	a1,a5
    502039ce:	00001517          	auipc	a0,0x1
    502039d2:	afa50513          	addi	a0,a0,-1286 # 502044c8 <__FUNCTION__.1220+0x158>
    502039d6:	bc2ff0ef          	jal	ra,50202d98 <printk>
    502039da:	ed6fe0ef          	jal	ra,502020b0 <do_scheduler>
    502039de:	fec42783          	lw	a5,-20(s0)
    502039e2:	2785                	addiw	a5,a5,1
    502039e4:	fef42623          	sw	a5,-20(s0)
    502039e8:	bfd1                	j	502039bc <printk_task2+0x12>

00000000502039ea <drawing_task1>:
    502039ea:	1101                	addi	sp,sp,-32
    502039ec:	ec06                	sd	ra,24(sp)
    502039ee:	e822                	sd	s0,16(sp)
    502039f0:	1000                	addi	s0,sp,32
    502039f2:	47d9                	li	a5,22
    502039f4:	fef42423          	sw	a5,-24(s0)
    502039f8:	03c00793          	li	a5,60
    502039fc:	fef42623          	sw	a5,-20(s0)
    50203a00:	a07d                	j	50203aae <drawing_task1+0xc4>
    50203a02:	fe842703          	lw	a4,-24(s0)
    50203a06:	fec42783          	lw	a5,-20(s0)
    50203a0a:	85ba                	mv	a1,a4
    50203a0c:	853e                	mv	a0,a5
    50203a0e:	b9dfd0ef          	jal	ra,502015aa <vt100_move_cursor>
    50203a12:	00001597          	auipc	a1,0x1
    50203a16:	0de58593          	addi	a1,a1,222 # 50204af0 <plane1>
    50203a1a:	00001517          	auipc	a0,0x1
    50203a1e:	ade50513          	addi	a0,a0,-1314 # 502044f8 <__FUNCTION__.1220+0x188>
    50203a22:	b76ff0ef          	jal	ra,50202d98 <printk>
    50203a26:	fe842783          	lw	a5,-24(s0)
    50203a2a:	2785                	addiw	a5,a5,1
    50203a2c:	0007871b          	sext.w	a4,a5
    50203a30:	fec42783          	lw	a5,-20(s0)
    50203a34:	85ba                	mv	a1,a4
    50203a36:	853e                	mv	a0,a5
    50203a38:	b73fd0ef          	jal	ra,502015aa <vt100_move_cursor>
    50203a3c:	00001597          	auipc	a1,0x1
    50203a40:	0cc58593          	addi	a1,a1,204 # 50204b08 <plane2>
    50203a44:	00001517          	auipc	a0,0x1
    50203a48:	ab450513          	addi	a0,a0,-1356 # 502044f8 <__FUNCTION__.1220+0x188>
    50203a4c:	b4cff0ef          	jal	ra,50202d98 <printk>
    50203a50:	fe842783          	lw	a5,-24(s0)
    50203a54:	2789                	addiw	a5,a5,2
    50203a56:	0007871b          	sext.w	a4,a5
    50203a5a:	fec42783          	lw	a5,-20(s0)
    50203a5e:	85ba                	mv	a1,a4
    50203a60:	853e                	mv	a0,a5
    50203a62:	b49fd0ef          	jal	ra,502015aa <vt100_move_cursor>
    50203a66:	00001597          	auipc	a1,0x1
    50203a6a:	0ba58593          	addi	a1,a1,186 # 50204b20 <plane3>
    50203a6e:	00001517          	auipc	a0,0x1
    50203a72:	a8a50513          	addi	a0,a0,-1398 # 502044f8 <__FUNCTION__.1220+0x188>
    50203a76:	b22ff0ef          	jal	ra,50202d98 <printk>
    50203a7a:	fe842783          	lw	a5,-24(s0)
    50203a7e:	278d                	addiw	a5,a5,3
    50203a80:	0007871b          	sext.w	a4,a5
    50203a84:	fec42783          	lw	a5,-20(s0)
    50203a88:	85ba                	mv	a1,a4
    50203a8a:	853e                	mv	a0,a5
    50203a8c:	b1ffd0ef          	jal	ra,502015aa <vt100_move_cursor>
    50203a90:	00001597          	auipc	a1,0x1
    50203a94:	0a858593          	addi	a1,a1,168 # 50204b38 <plane4>
    50203a98:	00001517          	auipc	a0,0x1
    50203a9c:	a6050513          	addi	a0,a0,-1440 # 502044f8 <__FUNCTION__.1220+0x188>
    50203aa0:	af8ff0ef          	jal	ra,50202d98 <printk>
    50203aa4:	fec42783          	lw	a5,-20(s0)
    50203aa8:	37fd                	addiw	a5,a5,-1
    50203aaa:	fef42623          	sw	a5,-20(s0)
    50203aae:	fec42783          	lw	a5,-20(s0)
    50203ab2:	2781                	sext.w	a5,a5
    50203ab4:	f4f047e3          	bgtz	a5,50203a02 <drawing_task1+0x18>
    50203ab8:	df8fe0ef          	jal	ra,502020b0 <do_scheduler>
    50203abc:	fe842783          	lw	a5,-24(s0)
    50203ac0:	85be                	mv	a1,a5
    50203ac2:	4505                	li	a0,1
    50203ac4:	ae7fd0ef          	jal	ra,502015aa <vt100_move_cursor>
    50203ac8:	00001597          	auipc	a1,0x1
    50203acc:	01058593          	addi	a1,a1,16 # 50204ad8 <blank>
    50203ad0:	00001517          	auipc	a0,0x1
    50203ad4:	a2850513          	addi	a0,a0,-1496 # 502044f8 <__FUNCTION__.1220+0x188>
    50203ad8:	ac0ff0ef          	jal	ra,50202d98 <printk>
    50203adc:	fe842783          	lw	a5,-24(s0)
    50203ae0:	2785                	addiw	a5,a5,1
    50203ae2:	2781                	sext.w	a5,a5
    50203ae4:	85be                	mv	a1,a5
    50203ae6:	4505                	li	a0,1
    50203ae8:	ac3fd0ef          	jal	ra,502015aa <vt100_move_cursor>
    50203aec:	00001597          	auipc	a1,0x1
    50203af0:	fec58593          	addi	a1,a1,-20 # 50204ad8 <blank>
    50203af4:	00001517          	auipc	a0,0x1
    50203af8:	a0450513          	addi	a0,a0,-1532 # 502044f8 <__FUNCTION__.1220+0x188>
    50203afc:	a9cff0ef          	jal	ra,50202d98 <printk>
    50203b00:	fe842783          	lw	a5,-24(s0)
    50203b04:	2789                	addiw	a5,a5,2
    50203b06:	2781                	sext.w	a5,a5
    50203b08:	85be                	mv	a1,a5
    50203b0a:	4505                	li	a0,1
    50203b0c:	a9ffd0ef          	jal	ra,502015aa <vt100_move_cursor>
    50203b10:	00001597          	auipc	a1,0x1
    50203b14:	fc858593          	addi	a1,a1,-56 # 50204ad8 <blank>
    50203b18:	00001517          	auipc	a0,0x1
    50203b1c:	9e050513          	addi	a0,a0,-1568 # 502044f8 <__FUNCTION__.1220+0x188>
    50203b20:	a78ff0ef          	jal	ra,50202d98 <printk>
    50203b24:	fe842783          	lw	a5,-24(s0)
    50203b28:	278d                	addiw	a5,a5,3
    50203b2a:	2781                	sext.w	a5,a5
    50203b2c:	85be                	mv	a1,a5
    50203b2e:	4505                	li	a0,1
    50203b30:	a7bfd0ef          	jal	ra,502015aa <vt100_move_cursor>
    50203b34:	00001597          	auipc	a1,0x1
    50203b38:	fa458593          	addi	a1,a1,-92 # 50204ad8 <blank>
    50203b3c:	00001517          	auipc	a0,0x1
    50203b40:	9bc50513          	addi	a0,a0,-1604 # 502044f8 <__FUNCTION__.1220+0x188>
    50203b44:	a54ff0ef          	jal	ra,50202d98 <printk>
    50203b48:	bd45                	j	502039f8 <drawing_task1+0xe>

0000000050203b4a <lock_task1>:
    50203b4a:	1101                	addi	sp,sp,-32
    50203b4c:	ec06                	sd	ra,24(sp)
    50203b4e:	e822                	sd	s0,16(sp)
    50203b50:	1000                	addi	s0,sp,32
    50203b52:	478d                	li	a5,3
    50203b54:	fef42423          	sw	a5,-24(s0)
    50203b58:	83c18793          	addi	a5,gp,-1988 # 50204c9c <is_init>
    50203b5c:	439c                	lw	a5,0(a5)
    50203b5e:	eb99                	bnez	a5,50203b74 <lock_task1+0x2a>
    50203b60:	00004517          	auipc	a0,0x4
    50203b64:	dc850513          	addi	a0,a0,-568 # 50207928 <mutex_lock>
    50203b68:	fcffd0ef          	jal	ra,50201b36 <do_mutex_lock_init>
    50203b6c:	83c18793          	addi	a5,gp,-1988 # 50204c9c <is_init>
    50203b70:	4705                	li	a4,1
    50203b72:	c398                	sw	a4,0(a5)
    50203b74:	fe842783          	lw	a5,-24(s0)
    50203b78:	85be                	mv	a1,a5
    50203b7a:	4505                	li	a0,1
    50203b7c:	a2ffd0ef          	jal	ra,502015aa <vt100_move_cursor>
    50203b80:	00001597          	auipc	a1,0x1
    50203b84:	fd058593          	addi	a1,a1,-48 # 50204b50 <blank>
    50203b88:	00001517          	auipc	a0,0x1
    50203b8c:	97850513          	addi	a0,a0,-1672 # 50204500 <__FUNCTION__.1220+0x190>
    50203b90:	a08ff0ef          	jal	ra,50202d98 <printk>
    50203b94:	fe842783          	lw	a5,-24(s0)
    50203b98:	85be                	mv	a1,a5
    50203b9a:	4505                	li	a0,1
    50203b9c:	a0ffd0ef          	jal	ra,502015aa <vt100_move_cursor>
    50203ba0:	00001517          	auipc	a0,0x1
    50203ba4:	96850513          	addi	a0,a0,-1688 # 50204508 <__FUNCTION__.1220+0x198>
    50203ba8:	9f0ff0ef          	jal	ra,50202d98 <printk>
    50203bac:	d04fe0ef          	jal	ra,502020b0 <do_scheduler>
    50203bb0:	00004517          	auipc	a0,0x4
    50203bb4:	d7850513          	addi	a0,a0,-648 # 50207928 <mutex_lock>
    50203bb8:	fa9fd0ef          	jal	ra,50201b60 <do_mutex_lock_acquire>
    50203bbc:	fe042623          	sw	zero,-20(s0)
    50203bc0:	a03d                	j	50203bee <lock_task1+0xa4>
    50203bc2:	fe842783          	lw	a5,-24(s0)
    50203bc6:	85be                	mv	a1,a5
    50203bc8:	4505                	li	a0,1
    50203bca:	9e1fd0ef          	jal	ra,502015aa <vt100_move_cursor>
    50203bce:	fec42783          	lw	a5,-20(s0)
    50203bd2:	85be                	mv	a1,a5
    50203bd4:	00001517          	auipc	a0,0x1
    50203bd8:	95450513          	addi	a0,a0,-1708 # 50204528 <__FUNCTION__.1220+0x1b8>
    50203bdc:	9bcff0ef          	jal	ra,50202d98 <printk>
    50203be0:	cd0fe0ef          	jal	ra,502020b0 <do_scheduler>
    50203be4:	fec42783          	lw	a5,-20(s0)
    50203be8:	2785                	addiw	a5,a5,1
    50203bea:	fef42623          	sw	a5,-20(s0)
    50203bee:	fec42783          	lw	a5,-20(s0)
    50203bf2:	0007871b          	sext.w	a4,a5
    50203bf6:	47cd                	li	a5,19
    50203bf8:	fce7d5e3          	bge	a5,a4,50203bc2 <lock_task1+0x78>
    50203bfc:	fe842783          	lw	a5,-24(s0)
    50203c00:	85be                	mv	a1,a5
    50203c02:	4505                	li	a0,1
    50203c04:	9a7fd0ef          	jal	ra,502015aa <vt100_move_cursor>
    50203c08:	00001597          	auipc	a1,0x1
    50203c0c:	f4858593          	addi	a1,a1,-184 # 50204b50 <blank>
    50203c10:	00001517          	auipc	a0,0x1
    50203c14:	8f050513          	addi	a0,a0,-1808 # 50204500 <__FUNCTION__.1220+0x190>
    50203c18:	980ff0ef          	jal	ra,50202d98 <printk>
    50203c1c:	fe842783          	lw	a5,-24(s0)
    50203c20:	85be                	mv	a1,a5
    50203c22:	4505                	li	a0,1
    50203c24:	987fd0ef          	jal	ra,502015aa <vt100_move_cursor>
    50203c28:	00001517          	auipc	a0,0x1
    50203c2c:	93050513          	addi	a0,a0,-1744 # 50204558 <__FUNCTION__.1220+0x1e8>
    50203c30:	968ff0ef          	jal	ra,50202d98 <printk>
    50203c34:	00004517          	auipc	a0,0x4
    50203c38:	cf450513          	addi	a0,a0,-780 # 50207928 <mutex_lock>
    50203c3c:	f75fd0ef          	jal	ra,50201bb0 <do_mutex_lock_release>
    50203c40:	c70fe0ef          	jal	ra,502020b0 <do_scheduler>
    50203c44:	bf11                	j	50203b58 <lock_task1+0xe>

0000000050203c46 <lock_task2>:
    50203c46:	1101                	addi	sp,sp,-32
    50203c48:	ec06                	sd	ra,24(sp)
    50203c4a:	e822                	sd	s0,16(sp)
    50203c4c:	1000                	addi	s0,sp,32
    50203c4e:	4791                	li	a5,4
    50203c50:	fef42423          	sw	a5,-24(s0)
    50203c54:	83c18793          	addi	a5,gp,-1988 # 50204c9c <is_init>
    50203c58:	439c                	lw	a5,0(a5)
    50203c5a:	eb99                	bnez	a5,50203c70 <lock_task2+0x2a>
    50203c5c:	00004517          	auipc	a0,0x4
    50203c60:	ccc50513          	addi	a0,a0,-820 # 50207928 <mutex_lock>
    50203c64:	ed3fd0ef          	jal	ra,50201b36 <do_mutex_lock_init>
    50203c68:	83c18793          	addi	a5,gp,-1988 # 50204c9c <is_init>
    50203c6c:	4705                	li	a4,1
    50203c6e:	c398                	sw	a4,0(a5)
    50203c70:	fe842783          	lw	a5,-24(s0)
    50203c74:	85be                	mv	a1,a5
    50203c76:	4505                	li	a0,1
    50203c78:	933fd0ef          	jal	ra,502015aa <vt100_move_cursor>
    50203c7c:	00001597          	auipc	a1,0x1
    50203c80:	ed458593          	addi	a1,a1,-300 # 50204b50 <blank>
    50203c84:	00001517          	auipc	a0,0x1
    50203c88:	87c50513          	addi	a0,a0,-1924 # 50204500 <__FUNCTION__.1220+0x190>
    50203c8c:	90cff0ef          	jal	ra,50202d98 <printk>
    50203c90:	fe842783          	lw	a5,-24(s0)
    50203c94:	85be                	mv	a1,a5
    50203c96:	4505                	li	a0,1
    50203c98:	913fd0ef          	jal	ra,502015aa <vt100_move_cursor>
    50203c9c:	00001517          	auipc	a0,0x1
    50203ca0:	86c50513          	addi	a0,a0,-1940 # 50204508 <__FUNCTION__.1220+0x198>
    50203ca4:	8f4ff0ef          	jal	ra,50202d98 <printk>
    50203ca8:	c08fe0ef          	jal	ra,502020b0 <do_scheduler>
    50203cac:	00004517          	auipc	a0,0x4
    50203cb0:	c7c50513          	addi	a0,a0,-900 # 50207928 <mutex_lock>
    50203cb4:	eadfd0ef          	jal	ra,50201b60 <do_mutex_lock_acquire>
    50203cb8:	fe042623          	sw	zero,-20(s0)
    50203cbc:	a03d                	j	50203cea <lock_task2+0xa4>
    50203cbe:	fe842783          	lw	a5,-24(s0)
    50203cc2:	85be                	mv	a1,a5
    50203cc4:	4505                	li	a0,1
    50203cc6:	8e5fd0ef          	jal	ra,502015aa <vt100_move_cursor>
    50203cca:	fec42783          	lw	a5,-20(s0)
    50203cce:	85be                	mv	a1,a5
    50203cd0:	00001517          	auipc	a0,0x1
    50203cd4:	85850513          	addi	a0,a0,-1960 # 50204528 <__FUNCTION__.1220+0x1b8>
    50203cd8:	8c0ff0ef          	jal	ra,50202d98 <printk>
    50203cdc:	bd4fe0ef          	jal	ra,502020b0 <do_scheduler>
    50203ce0:	fec42783          	lw	a5,-20(s0)
    50203ce4:	2785                	addiw	a5,a5,1
    50203ce6:	fef42623          	sw	a5,-20(s0)
    50203cea:	fec42783          	lw	a5,-20(s0)
    50203cee:	0007871b          	sext.w	a4,a5
    50203cf2:	47cd                	li	a5,19
    50203cf4:	fce7d5e3          	bge	a5,a4,50203cbe <lock_task2+0x78>
    50203cf8:	fe842783          	lw	a5,-24(s0)
    50203cfc:	85be                	mv	a1,a5
    50203cfe:	4505                	li	a0,1
    50203d00:	8abfd0ef          	jal	ra,502015aa <vt100_move_cursor>
    50203d04:	00001597          	auipc	a1,0x1
    50203d08:	e4c58593          	addi	a1,a1,-436 # 50204b50 <blank>
    50203d0c:	00000517          	auipc	a0,0x0
    50203d10:	7f450513          	addi	a0,a0,2036 # 50204500 <__FUNCTION__.1220+0x190>
    50203d14:	884ff0ef          	jal	ra,50202d98 <printk>
    50203d18:	fe842783          	lw	a5,-24(s0)
    50203d1c:	85be                	mv	a1,a5
    50203d1e:	4505                	li	a0,1
    50203d20:	88bfd0ef          	jal	ra,502015aa <vt100_move_cursor>
    50203d24:	00001517          	auipc	a0,0x1
    50203d28:	83450513          	addi	a0,a0,-1996 # 50204558 <__FUNCTION__.1220+0x1e8>
    50203d2c:	86cff0ef          	jal	ra,50202d98 <printk>
    50203d30:	00004517          	auipc	a0,0x4
    50203d34:	bf850513          	addi	a0,a0,-1032 # 50207928 <mutex_lock>
    50203d38:	e79fd0ef          	jal	ra,50201bb0 <do_mutex_lock_release>
    50203d3c:	b74fe0ef          	jal	ra,502020b0 <do_scheduler>
    50203d40:	bf11                	j	50203c54 <lock_task2+0xe>

0000000050203d42 <printf_task1>:
    50203d42:	1101                	addi	sp,sp,-32
    50203d44:	ec06                	sd	ra,24(sp)
    50203d46:	e822                	sd	s0,16(sp)
    50203d48:	1000                	addi	s0,sp,32
    50203d4a:	4795                	li	a5,5
    50203d4c:	fef42423          	sw	a5,-24(s0)
    50203d50:	fe042623          	sw	zero,-20(s0)
    50203d54:	fe842783          	lw	a5,-24(s0)
    50203d58:	85be                	mv	a1,a5
    50203d5a:	4505                	li	a0,1
    50203d5c:	b23ff0ef          	jal	ra,5020387e <sys_move_cursor>
    50203d60:	fec42783          	lw	a5,-20(s0)
    50203d64:	85be                	mv	a1,a5
    50203d66:	00001517          	auipc	a0,0x1
    50203d6a:	81a50513          	addi	a0,a0,-2022 # 50204580 <__FUNCTION__.1220+0x210>
    50203d6e:	f2eff0ef          	jal	ra,5020349c <printf>
    50203d72:	fec42783          	lw	a5,-20(s0)
    50203d76:	2785                	addiw	a5,a5,1
    50203d78:	fef42623          	sw	a5,-20(s0)
    50203d7c:	bfe1                	j	50203d54 <printf_task1+0x12>

0000000050203d7e <printf_task2>:
    50203d7e:	1101                	addi	sp,sp,-32
    50203d80:	ec06                	sd	ra,24(sp)
    50203d82:	e822                	sd	s0,16(sp)
    50203d84:	1000                	addi	s0,sp,32
    50203d86:	4799                	li	a5,6
    50203d88:	fef42423          	sw	a5,-24(s0)
    50203d8c:	fe042623          	sw	zero,-20(s0)
    50203d90:	fe842783          	lw	a5,-24(s0)
    50203d94:	85be                	mv	a1,a5
    50203d96:	4505                	li	a0,1
    50203d98:	ae7ff0ef          	jal	ra,5020387e <sys_move_cursor>
    50203d9c:	fec42783          	lw	a5,-20(s0)
    50203da0:	85be                	mv	a1,a5
    50203da2:	00000517          	auipc	a0,0x0
    50203da6:	7de50513          	addi	a0,a0,2014 # 50204580 <__FUNCTION__.1220+0x210>
    50203daa:	ef2ff0ef          	jal	ra,5020349c <printf>
    50203dae:	fec42783          	lw	a5,-20(s0)
    50203db2:	2785                	addiw	a5,a5,1
    50203db4:	fef42623          	sw	a5,-20(s0)
    50203db8:	bfe1                	j	50203d90 <printf_task2+0x12>

0000000050203dba <drawing_task2>:
    50203dba:	1101                	addi	sp,sp,-32
    50203dbc:	ec06                	sd	ra,24(sp)
    50203dbe:	e822                	sd	s0,16(sp)
    50203dc0:	1000                	addi	s0,sp,32
    50203dc2:	47d9                	li	a5,22
    50203dc4:	fef42423          	sw	a5,-24(s0)
    50203dc8:	03700793          	li	a5,55
    50203dcc:	fef42623          	sw	a5,-20(s0)
    50203dd0:	a07d                	j	50203e7e <drawing_task2+0xc4>
    50203dd2:	fe842703          	lw	a4,-24(s0)
    50203dd6:	fec42783          	lw	a5,-20(s0)
    50203dda:	85ba                	mv	a1,a4
    50203ddc:	853e                	mv	a0,a5
    50203dde:	aa1ff0ef          	jal	ra,5020387e <sys_move_cursor>
    50203de2:	00001597          	auipc	a1,0x1
    50203de6:	db658593          	addi	a1,a1,-586 # 50204b98 <plane1>
    50203dea:	00000517          	auipc	a0,0x0
    50203dee:	7c650513          	addi	a0,a0,1990 # 502045b0 <__FUNCTION__.1220+0x240>
    50203df2:	eaaff0ef          	jal	ra,5020349c <printf>
    50203df6:	fe842783          	lw	a5,-24(s0)
    50203dfa:	2785                	addiw	a5,a5,1
    50203dfc:	0007871b          	sext.w	a4,a5
    50203e00:	fec42783          	lw	a5,-20(s0)
    50203e04:	85ba                	mv	a1,a4
    50203e06:	853e                	mv	a0,a5
    50203e08:	a77ff0ef          	jal	ra,5020387e <sys_move_cursor>
    50203e0c:	00001597          	auipc	a1,0x1
    50203e10:	da458593          	addi	a1,a1,-604 # 50204bb0 <plane2>
    50203e14:	00000517          	auipc	a0,0x0
    50203e18:	79c50513          	addi	a0,a0,1948 # 502045b0 <__FUNCTION__.1220+0x240>
    50203e1c:	e80ff0ef          	jal	ra,5020349c <printf>
    50203e20:	fe842783          	lw	a5,-24(s0)
    50203e24:	2789                	addiw	a5,a5,2
    50203e26:	0007871b          	sext.w	a4,a5
    50203e2a:	fec42783          	lw	a5,-20(s0)
    50203e2e:	85ba                	mv	a1,a4
    50203e30:	853e                	mv	a0,a5
    50203e32:	a4dff0ef          	jal	ra,5020387e <sys_move_cursor>
    50203e36:	00001597          	auipc	a1,0x1
    50203e3a:	d9258593          	addi	a1,a1,-622 # 50204bc8 <plane3>
    50203e3e:	00000517          	auipc	a0,0x0
    50203e42:	77250513          	addi	a0,a0,1906 # 502045b0 <__FUNCTION__.1220+0x240>
    50203e46:	e56ff0ef          	jal	ra,5020349c <printf>
    50203e4a:	fe842783          	lw	a5,-24(s0)
    50203e4e:	278d                	addiw	a5,a5,3
    50203e50:	0007871b          	sext.w	a4,a5
    50203e54:	fec42783          	lw	a5,-20(s0)
    50203e58:	85ba                	mv	a1,a4
    50203e5a:	853e                	mv	a0,a5
    50203e5c:	a23ff0ef          	jal	ra,5020387e <sys_move_cursor>
    50203e60:	00001597          	auipc	a1,0x1
    50203e64:	d8058593          	addi	a1,a1,-640 # 50204be0 <plane4>
    50203e68:	00000517          	auipc	a0,0x0
    50203e6c:	74850513          	addi	a0,a0,1864 # 502045b0 <__FUNCTION__.1220+0x240>
    50203e70:	e2cff0ef          	jal	ra,5020349c <printf>
    50203e74:	fec42783          	lw	a5,-20(s0)
    50203e78:	37fd                	addiw	a5,a5,-1
    50203e7a:	fef42623          	sw	a5,-20(s0)
    50203e7e:	fec42783          	lw	a5,-20(s0)
    50203e82:	2781                	sext.w	a5,a5
    50203e84:	f4f047e3          	bgtz	a5,50203dd2 <drawing_task2+0x18>
    50203e88:	fe842783          	lw	a5,-24(s0)
    50203e8c:	85be                	mv	a1,a5
    50203e8e:	4505                	li	a0,1
    50203e90:	9efff0ef          	jal	ra,5020387e <sys_move_cursor>
    50203e94:	00001597          	auipc	a1,0x1
    50203e98:	cec58593          	addi	a1,a1,-788 # 50204b80 <blank>
    50203e9c:	00000517          	auipc	a0,0x0
    50203ea0:	71450513          	addi	a0,a0,1812 # 502045b0 <__FUNCTION__.1220+0x240>
    50203ea4:	df8ff0ef          	jal	ra,5020349c <printf>
    50203ea8:	fe842783          	lw	a5,-24(s0)
    50203eac:	2785                	addiw	a5,a5,1
    50203eae:	2781                	sext.w	a5,a5
    50203eb0:	85be                	mv	a1,a5
    50203eb2:	4505                	li	a0,1
    50203eb4:	9cbff0ef          	jal	ra,5020387e <sys_move_cursor>
    50203eb8:	00001597          	auipc	a1,0x1
    50203ebc:	cc858593          	addi	a1,a1,-824 # 50204b80 <blank>
    50203ec0:	00000517          	auipc	a0,0x0
    50203ec4:	6f050513          	addi	a0,a0,1776 # 502045b0 <__FUNCTION__.1220+0x240>
    50203ec8:	dd4ff0ef          	jal	ra,5020349c <printf>
    50203ecc:	fe842783          	lw	a5,-24(s0)
    50203ed0:	2789                	addiw	a5,a5,2
    50203ed2:	2781                	sext.w	a5,a5
    50203ed4:	85be                	mv	a1,a5
    50203ed6:	4505                	li	a0,1
    50203ed8:	9a7ff0ef          	jal	ra,5020387e <sys_move_cursor>
    50203edc:	00001597          	auipc	a1,0x1
    50203ee0:	ca458593          	addi	a1,a1,-860 # 50204b80 <blank>
    50203ee4:	00000517          	auipc	a0,0x0
    50203ee8:	6cc50513          	addi	a0,a0,1740 # 502045b0 <__FUNCTION__.1220+0x240>
    50203eec:	db0ff0ef          	jal	ra,5020349c <printf>
    50203ef0:	fe842783          	lw	a5,-24(s0)
    50203ef4:	278d                	addiw	a5,a5,3
    50203ef6:	2781                	sext.w	a5,a5
    50203ef8:	85be                	mv	a1,a5
    50203efa:	4505                	li	a0,1
    50203efc:	983ff0ef          	jal	ra,5020387e <sys_move_cursor>
    50203f00:	00001597          	auipc	a1,0x1
    50203f04:	c8058593          	addi	a1,a1,-896 # 50204b80 <blank>
    50203f08:	00000517          	auipc	a0,0x0
    50203f0c:	6a850513          	addi	a0,a0,1704 # 502045b0 <__FUNCTION__.1220+0x240>
    50203f10:	d8cff0ef          	jal	ra,5020349c <printf>
    50203f14:	bd55                	j	50203dc8 <drawing_task2+0xe>

0000000050203f16 <sleep_task>:
    50203f16:	1101                	addi	sp,sp,-32
    50203f18:	ec06                	sd	ra,24(sp)
    50203f1a:	e822                	sd	s0,16(sp)
    50203f1c:	1000                	addi	s0,sp,32
    50203f1e:	4785                	li	a5,1
    50203f20:	fef42423          	sw	a5,-24(s0)
    50203f24:	4795                	li	a5,5
    50203f26:	fef42223          	sw	a5,-28(s0)
    50203f2a:	fe042623          	sw	zero,-20(s0)
    50203f2e:	a805                	j	50203f5e <sleep_task+0x48>
    50203f30:	fe842783          	lw	a5,-24(s0)
    50203f34:	85be                	mv	a1,a5
    50203f36:	4505                	li	a0,1
    50203f38:	947ff0ef          	jal	ra,5020387e <sys_move_cursor>
    50203f3c:	fec42783          	lw	a5,-20(s0)
    50203f40:	85be                	mv	a1,a5
    50203f42:	00000517          	auipc	a0,0x0
    50203f46:	67650513          	addi	a0,a0,1654 # 502045b8 <__FUNCTION__.1220+0x248>
    50203f4a:	d52ff0ef          	jal	ra,5020349c <printf>
    50203f4e:	4505                	li	a0,1
    50203f50:	8c3ff0ef          	jal	ra,50203812 <sys_sleep>
    50203f54:	fec42783          	lw	a5,-20(s0)
    50203f58:	2785                	addiw	a5,a5,1
    50203f5a:	fef42623          	sw	a5,-20(s0)
    50203f5e:	fec42783          	lw	a5,-20(s0)
    50203f62:	0007871b          	sext.w	a4,a5
    50203f66:	47a5                	li	a5,9
    50203f68:	fce7d4e3          	bge	a5,a4,50203f30 <sleep_task+0x1a>
    50203f6c:	fe842783          	lw	a5,-24(s0)
    50203f70:	85be                	mv	a1,a5
    50203f72:	4505                	li	a0,1
    50203f74:	90bff0ef          	jal	ra,5020387e <sys_move_cursor>
    50203f78:	fe442783          	lw	a5,-28(s0)
    50203f7c:	85be                	mv	a1,a5
    50203f7e:	00000517          	auipc	a0,0x0
    50203f82:	66a50513          	addi	a0,a0,1642 # 502045e8 <__FUNCTION__.1220+0x278>
    50203f86:	d16ff0ef          	jal	ra,5020349c <printf>
    50203f8a:	fe442783          	lw	a5,-28(s0)
    50203f8e:	853e                	mv	a0,a5
    50203f90:	883ff0ef          	jal	ra,50203812 <sys_sleep>
    50203f94:	fe842783          	lw	a5,-24(s0)
    50203f98:	85be                	mv	a1,a5
    50203f9a:	4505                	li	a0,1
    50203f9c:	8e3ff0ef          	jal	ra,5020387e <sys_move_cursor>
    50203fa0:	00001597          	auipc	a1,0x1
    50203fa4:	c5858593          	addi	a1,a1,-936 # 50204bf8 <blank>
    50203fa8:	00000517          	auipc	a0,0x0
    50203fac:	67850513          	addi	a0,a0,1656 # 50204620 <__FUNCTION__.1220+0x2b0>
    50203fb0:	cecff0ef          	jal	ra,5020349c <printf>
    50203fb4:	bf9d                	j	50203f2a <sleep_task+0x14>

0000000050203fb6 <timer_task>:
    50203fb6:	7179                	addi	sp,sp,-48
    50203fb8:	f406                	sd	ra,40(sp)
    50203fba:	f022                	sd	s0,32(sp)
    50203fbc:	ec26                	sd	s1,24(sp)
    50203fbe:	1800                	addi	s0,sp,48
    50203fc0:	4789                	li	a5,2
    50203fc2:	fcf42e23          	sw	a5,-36(s0)
    50203fc6:	98dff0ef          	jal	ra,50203952 <clock>
    50203fca:	87aa                	mv	a5,a0
    50203fcc:	fcf42c23          	sw	a5,-40(s0)
    50203fd0:	fd846483          	lwu	s1,-40(s0)
    50203fd4:	93dff0ef          	jal	ra,50203910 <sys_get_timebase>
    50203fd8:	87aa                	mv	a5,a0
    50203fda:	02f4c7b3          	div	a5,s1,a5
    50203fde:	fcf42a23          	sw	a5,-44(s0)
    50203fe2:	fdc42783          	lw	a5,-36(s0)
    50203fe6:	85be                	mv	a1,a5
    50203fe8:	4505                	li	a0,1
    50203fea:	895ff0ef          	jal	ra,5020387e <sys_move_cursor>
    50203fee:	fd842703          	lw	a4,-40(s0)
    50203ff2:	fd442783          	lw	a5,-44(s0)
    50203ff6:	863a                	mv	a2,a4
    50203ff8:	85be                	mv	a1,a5
    50203ffa:	00000517          	auipc	a0,0x0
    50203ffe:	62e50513          	addi	a0,a0,1582 # 50204628 <__FUNCTION__.1220+0x2b8>
    50204002:	c9aff0ef          	jal	ra,5020349c <printf>
    50204006:	b7c1                	j	50203fc6 <timer_task+0x10>

0000000050204008 <lock2_task1>:
    50204008:	1101                	addi	sp,sp,-32
    5020400a:	ec06                	sd	ra,24(sp)
    5020400c:	e822                	sd	s0,16(sp)
    5020400e:	1000                	addi	s0,sp,32
    50204010:	478d                	li	a5,3
    50204012:	fef42423          	sw	a5,-24(s0)
    50204016:	00003797          	auipc	a5,0x3
    5020401a:	bca78793          	addi	a5,a5,-1078 # 50206be0 <is_init>
    5020401e:	439c                	lw	a5,0(a5)
    50204020:	ef89                	bnez	a5,5020403a <lock2_task1+0x32>
    50204022:	00003517          	auipc	a0,0x3
    50204026:	bc650513          	addi	a0,a0,-1082 # 50206be8 <mutex_lock>
    5020402a:	f84ff0ef          	jal	ra,502037ae <mthread_mutex_init>
    5020402e:	00003797          	auipc	a5,0x3
    50204032:	bb278793          	addi	a5,a5,-1102 # 50206be0 <is_init>
    50204036:	4705                	li	a4,1
    50204038:	c398                	sw	a4,0(a5)
    5020403a:	fe842783          	lw	a5,-24(s0)
    5020403e:	85be                	mv	a1,a5
    50204040:	4505                	li	a0,1
    50204042:	83dff0ef          	jal	ra,5020387e <sys_move_cursor>
    50204046:	00001597          	auipc	a1,0x1
    5020404a:	bea58593          	addi	a1,a1,-1046 # 50204c30 <blank>
    5020404e:	00000517          	auipc	a0,0x0
    50204052:	61250513          	addi	a0,a0,1554 # 50204660 <__FUNCTION__.1220+0x2f0>
    50204056:	c46ff0ef          	jal	ra,5020349c <printf>
    5020405a:	fe842783          	lw	a5,-24(s0)
    5020405e:	85be                	mv	a1,a5
    50204060:	4505                	li	a0,1
    50204062:	81dff0ef          	jal	ra,5020387e <sys_move_cursor>
    50204066:	00000517          	auipc	a0,0x0
    5020406a:	60250513          	addi	a0,a0,1538 # 50204668 <__FUNCTION__.1220+0x2f8>
    5020406e:	c2eff0ef          	jal	ra,5020349c <printf>
    50204072:	00003517          	auipc	a0,0x3
    50204076:	b7650513          	addi	a0,a0,-1162 # 50206be8 <mutex_lock>
    5020407a:	f70ff0ef          	jal	ra,502037ea <mthread_mutex_lock>
    5020407e:	fe042623          	sw	zero,-20(s0)
    50204082:	a02d                	j	502040ac <lock2_task1+0xa4>
    50204084:	fe842783          	lw	a5,-24(s0)
    50204088:	85be                	mv	a1,a5
    5020408a:	4505                	li	a0,1
    5020408c:	ff2ff0ef          	jal	ra,5020387e <sys_move_cursor>
    50204090:	fec42783          	lw	a5,-20(s0)
    50204094:	85be                	mv	a1,a5
    50204096:	00000517          	auipc	a0,0x0
    5020409a:	5f250513          	addi	a0,a0,1522 # 50204688 <__FUNCTION__.1220+0x318>
    5020409e:	bfeff0ef          	jal	ra,5020349c <printf>
    502040a2:	fec42783          	lw	a5,-20(s0)
    502040a6:	2785                	addiw	a5,a5,1
    502040a8:	fef42623          	sw	a5,-20(s0)
    502040ac:	fec42783          	lw	a5,-20(s0)
    502040b0:	0007871b          	sext.w	a4,a5
    502040b4:	47cd                	li	a5,19
    502040b6:	fce7d7e3          	bge	a5,a4,50204084 <lock2_task1+0x7c>
    502040ba:	fe842783          	lw	a5,-24(s0)
    502040be:	85be                	mv	a1,a5
    502040c0:	4505                	li	a0,1
    502040c2:	fbcff0ef          	jal	ra,5020387e <sys_move_cursor>
    502040c6:	00001597          	auipc	a1,0x1
    502040ca:	b6a58593          	addi	a1,a1,-1174 # 50204c30 <blank>
    502040ce:	00000517          	auipc	a0,0x0
    502040d2:	59250513          	addi	a0,a0,1426 # 50204660 <__FUNCTION__.1220+0x2f0>
    502040d6:	bc6ff0ef          	jal	ra,5020349c <printf>
    502040da:	fe842783          	lw	a5,-24(s0)
    502040de:	85be                	mv	a1,a5
    502040e0:	4505                	li	a0,1
    502040e2:	f9cff0ef          	jal	ra,5020387e <sys_move_cursor>
    502040e6:	00000517          	auipc	a0,0x0
    502040ea:	5d250513          	addi	a0,a0,1490 # 502046b8 <__FUNCTION__.1220+0x348>
    502040ee:	baeff0ef          	jal	ra,5020349c <printf>
    502040f2:	00003517          	auipc	a0,0x3
    502040f6:	af650513          	addi	a0,a0,-1290 # 50206be8 <mutex_lock>
    502040fa:	f04ff0ef          	jal	ra,502037fe <mthread_mutex_unlock>
    502040fe:	bf21                	j	50204016 <lock2_task1+0xe>

0000000050204100 <lock2_task2>:
    50204100:	1101                	addi	sp,sp,-32
    50204102:	ec06                	sd	ra,24(sp)
    50204104:	e822                	sd	s0,16(sp)
    50204106:	1000                	addi	s0,sp,32
    50204108:	4791                	li	a5,4
    5020410a:	fef42423          	sw	a5,-24(s0)
    5020410e:	00003797          	auipc	a5,0x3
    50204112:	ad278793          	addi	a5,a5,-1326 # 50206be0 <is_init>
    50204116:	439c                	lw	a5,0(a5)
    50204118:	ef89                	bnez	a5,50204132 <lock2_task2+0x32>
    5020411a:	00003517          	auipc	a0,0x3
    5020411e:	ace50513          	addi	a0,a0,-1330 # 50206be8 <mutex_lock>
    50204122:	e8cff0ef          	jal	ra,502037ae <mthread_mutex_init>
    50204126:	00003797          	auipc	a5,0x3
    5020412a:	aba78793          	addi	a5,a5,-1350 # 50206be0 <is_init>
    5020412e:	4705                	li	a4,1
    50204130:	c398                	sw	a4,0(a5)
    50204132:	fe842783          	lw	a5,-24(s0)
    50204136:	85be                	mv	a1,a5
    50204138:	4505                	li	a0,1
    5020413a:	f44ff0ef          	jal	ra,5020387e <sys_move_cursor>
    5020413e:	00001597          	auipc	a1,0x1
    50204142:	af258593          	addi	a1,a1,-1294 # 50204c30 <blank>
    50204146:	00000517          	auipc	a0,0x0
    5020414a:	51a50513          	addi	a0,a0,1306 # 50204660 <__FUNCTION__.1220+0x2f0>
    5020414e:	b4eff0ef          	jal	ra,5020349c <printf>
    50204152:	fe842783          	lw	a5,-24(s0)
    50204156:	85be                	mv	a1,a5
    50204158:	4505                	li	a0,1
    5020415a:	f24ff0ef          	jal	ra,5020387e <sys_move_cursor>
    5020415e:	00000517          	auipc	a0,0x0
    50204162:	50a50513          	addi	a0,a0,1290 # 50204668 <__FUNCTION__.1220+0x2f8>
    50204166:	b36ff0ef          	jal	ra,5020349c <printf>
    5020416a:	00003517          	auipc	a0,0x3
    5020416e:	a7e50513          	addi	a0,a0,-1410 # 50206be8 <mutex_lock>
    50204172:	e78ff0ef          	jal	ra,502037ea <mthread_mutex_lock>
    50204176:	fe042623          	sw	zero,-20(s0)
    5020417a:	a02d                	j	502041a4 <lock2_task2+0xa4>
    5020417c:	fe842783          	lw	a5,-24(s0)
    50204180:	85be                	mv	a1,a5
    50204182:	4505                	li	a0,1
    50204184:	efaff0ef          	jal	ra,5020387e <sys_move_cursor>
    50204188:	fec42783          	lw	a5,-20(s0)
    5020418c:	85be                	mv	a1,a5
    5020418e:	00000517          	auipc	a0,0x0
    50204192:	4fa50513          	addi	a0,a0,1274 # 50204688 <__FUNCTION__.1220+0x318>
    50204196:	b06ff0ef          	jal	ra,5020349c <printf>
    5020419a:	fec42783          	lw	a5,-20(s0)
    5020419e:	2785                	addiw	a5,a5,1
    502041a0:	fef42623          	sw	a5,-20(s0)
    502041a4:	fec42783          	lw	a5,-20(s0)
    502041a8:	0007871b          	sext.w	a4,a5
    502041ac:	47cd                	li	a5,19
    502041ae:	fce7d7e3          	bge	a5,a4,5020417c <lock2_task2+0x7c>
    502041b2:	fe842783          	lw	a5,-24(s0)
    502041b6:	85be                	mv	a1,a5
    502041b8:	4505                	li	a0,1
    502041ba:	ec4ff0ef          	jal	ra,5020387e <sys_move_cursor>
    502041be:	00001597          	auipc	a1,0x1
    502041c2:	a7258593          	addi	a1,a1,-1422 # 50204c30 <blank>
    502041c6:	00000517          	auipc	a0,0x0
    502041ca:	49a50513          	addi	a0,a0,1178 # 50204660 <__FUNCTION__.1220+0x2f0>
    502041ce:	aceff0ef          	jal	ra,5020349c <printf>
    502041d2:	fe842783          	lw	a5,-24(s0)
    502041d6:	85be                	mv	a1,a5
    502041d8:	4505                	li	a0,1
    502041da:	ea4ff0ef          	jal	ra,5020387e <sys_move_cursor>
    502041de:	00000517          	auipc	a0,0x0
    502041e2:	4da50513          	addi	a0,a0,1242 # 502046b8 <__FUNCTION__.1220+0x348>
    502041e6:	ab6ff0ef          	jal	ra,5020349c <printf>
    502041ea:	00003517          	auipc	a0,0x3
    502041ee:	9fe50513          	addi	a0,a0,-1538 # 50206be8 <mutex_lock>
    502041f2:	e0cff0ef          	jal	ra,502037fe <mthread_mutex_unlock>
    502041f6:	bf21                	j	5020410e <lock2_task2+0xe>

00000000502041f8 <deadlock_task>:
    502041f8:	7179                	addi	sp,sp,-48
    502041fa:	f406                	sd	ra,40(sp)
    502041fc:	f022                	sd	s0,32(sp)
    502041fe:	1800                	addi	s0,sp,48
    50204200:	fe042623          	sw	zero,-20(s0)
    50204204:	479d                	li	a5,7
    50204206:	fef42223          	sw	a5,-28(s0)
    5020420a:	4785                	li	a5,1
    5020420c:	fef42423          	sw	a5,-24(s0)
    50204210:	6f7267b7          	lui	a5,0x6f726
    50204214:	54878793          	addi	a5,a5,1352 # 6f726548 <__BSS_END__+0x1f51ec00>
    50204218:	fcf42c23          	sw	a5,-40(s0)
    5020421c:	fc040e23          	sb	zero,-36(s0)
    50204220:	fe442783          	lw	a5,-28(s0)
    50204224:	85be                	mv	a1,a5
    50204226:	4505                	li	a0,1
    50204228:	e56ff0ef          	jal	ra,5020387e <sys_move_cursor>
    5020422c:	00000517          	auipc	a0,0x0
    50204230:	4b450513          	addi	a0,a0,1204 # 502046e0 <__FUNCTION__.1220+0x370>
    50204234:	a68ff0ef          	jal	ra,5020349c <printf>
    50204238:	fec42703          	lw	a4,-20(s0)
    5020423c:	6789                	lui	a5,0x2
    5020423e:	7107879b          	addiw	a5,a5,1808
    50204242:	02f767bb          	remw	a5,a4,a5
    50204246:	2781                	sext.w	a5,a5
    50204248:	eba1                	bnez	a5,50204298 <deadlock_task+0xa0>
    5020424a:	fe842703          	lw	a4,-24(s0)
    5020424e:	6795                	lui	a5,0x5
    50204250:	39b7879b          	addiw	a5,a5,923
    50204254:	02f707bb          	mulw	a5,a4,a5
    50204258:	0007871b          	sext.w	a4,a5
    5020425c:	0026a7b7          	lui	a5,0x26a
    50204260:	ec37879b          	addiw	a5,a5,-317
    50204264:	9fb9                	addw	a5,a5,a4
    50204266:	0007871b          	sext.w	a4,a5
    5020426a:	67c1                	lui	a5,0x10
    5020426c:	17fd                	addi	a5,a5,-1
    5020426e:	8ff9                	and	a5,a5,a4
    50204270:	fef42423          	sw	a5,-24(s0)
    50204274:	fe442783          	lw	a5,-28(s0)
    50204278:	85be                	mv	a1,a5
    5020427a:	4505                	li	a0,1
    5020427c:	e02ff0ef          	jal	ra,5020387e <sys_move_cursor>
    50204280:	fe842703          	lw	a4,-24(s0)
    50204284:	fd840793          	addi	a5,s0,-40
    50204288:	863a                	mv	a2,a4
    5020428a:	85be                	mv	a1,a5
    5020428c:	00000517          	auipc	a0,0x0
    50204290:	46c50513          	addi	a0,a0,1132 # 502046f8 <__FUNCTION__.1220+0x388>
    50204294:	a08ff0ef          	jal	ra,5020349c <printf>
    50204298:	fec42783          	lw	a5,-20(s0)
    5020429c:	2785                	addiw	a5,a5,1
    5020429e:	fef42623          	sw	a5,-20(s0)
    502042a2:	bf59                	j	50204238 <deadlock_task+0x40>
